Component: ARM Compiler 5.06 update 7 (build 960) Tool: armlink [4d3601]

==============================================================================

Section Cross References

    main.o(i.SERCOM0_Handler) refers to main.o(i._Z12verifyPackettPht) for verifyPacket(unsigned short, unsigned char*, unsigned short)
    main.o(i.SERCOM0_Handler) refers to queue.o(i.xQueueReceiveFromISR) for xQueueReceiveFromISR
    main.o(i.SERCOM0_Handler) refers to queue.o(i.xQueueGiveFromISR) for xQueueGiveFromISR
    main.o(i.SERCOM0_Handler) refers to main.o(.data) for .data
    main.o(i.SERCOM0_Handler) refers to main.o(.bss) for .bss
    main.o(i.SERCOM1_Handler) refers to queue.o(i.xQueueGenericSendFromISR) for xQueueGenericSendFromISR
    main.o(i.SERCOM1_Handler) refers to main.o(.data) for .data
    main.o(i.SERCOM2_Handler) refers to strstr.o(.text) for strstr
    main.o(i.SERCOM2_Handler) refers to queue.o(i.xQueueReceiveFromISR) for xQueueReceiveFromISR
    main.o(i.SERCOM2_Handler) refers to queue.o(i.xQueueGiveFromISR) for xQueueGiveFromISR
    main.o(i.SERCOM2_Handler) refers to main.o(.bss) for .bss
    main.o(i.SERCOM2_Handler) refers to main.o(.data) for .data
    main.o(i._Z10setupParsePv) refers to sercom.o(i._ZN4UART7_printfEPKcz) for UART::_printf(const char*, ...)
    main.o(i._Z10setupParsePv) refers to tasks.o(i.vTaskDelay) for vTaskDelay
    main.o(i._Z10setupParsePv) refers to queue.o(i.xQueueSemaphoreTake) for xQueueSemaphoreTake
    main.o(i._Z10setupParsePv) refers to tasks.o(i.xTaskCreate) for xTaskCreate
    main.o(i._Z10setupParsePv) refers to main.o(.data) for .data
    main.o(i._Z10setupParsePv) refers to main.o(i._Z18parseSmartmeshDataPv) for parseSmartmeshData(void*)
    main.o(i._Z12verifyPackettPht) refers to main.o(.data) for .data
    main.o(i._Z18parseSmartmeshDataPv) refers to queue.o(i.xQueueSemaphoreTake) for xQueueSemaphoreTake
    main.o(i._Z18parseSmartmeshDataPv) refers to queue.o(i.xQueueGenericSend) for xQueueGenericSend
    main.o(i._Z18parseSmartmeshDataPv) refers to sercom.o(i._ZN4UART7_printfEPKcz) for UART::_printf(const char*, ...)
    main.o(i._Z18parseSmartmeshDataPv) refers to api.o(i._ZN13Smartmesh_API9subscribeEjj) for Smartmesh_API::subscribe(unsigned, unsigned)
    main.o(i._Z18parseSmartmeshDataPv) refers to api.o(i._ZN13Smartmesh_API8mgr_initEv) for Smartmesh_API::mgr_init()
    main.o(i._Z18parseSmartmeshDataPv) refers to api.o(i._ZN13Smartmesh_API12resetManagerEv) for Smartmesh_API::resetManager()
    main.o(i._Z18parseSmartmeshDataPv) refers to api.o(i._ZN13Smartmesh_API16parseNetworkInfoEP12network_infoPh) for Smartmesh_API::parseNetworkInfo(network_info*, unsigned char*)
    main.o(i._Z18parseSmartmeshDataPv) refers to tasks.o(i.vTaskDelete) for vTaskDelete
    main.o(i._Z18parseSmartmeshDataPv) refers to main.o(.data) for .data
    main.o(i._Z18parseSmartmeshDataPv) refers to main.o(.bss) for .bss
    main.o(i.__sti___8_main_cpp_982d444f) refers to sercom.o(i._ZN4UARTC1EP18sercom_registers_ti) for UART::UART(sercom_registers_t*, int)
    main.o(i.__sti___8_main_cpp_982d444f) refers to api.o(i._ZN13Smartmesh_APIC1EP4UART) for Smartmesh_API::Smartmesh_API(UART*)
    main.o(i.__sti___8_main_cpp_982d444f) refers to queue.o(i.xQueueGenericCreate) for xQueueGenericCreate
    main.o(i.__sti___8_main_cpp_982d444f) refers to queue.o(i.xQueueCreateCountingSemaphore) for xQueueCreateCountingSemaphore
    main.o(i.__sti___8_main_cpp_982d444f) refers to main.o(.data) for .data
    main.o(i.__sti___8_main_cpp_982d444f) refers to main.o(.bss) for .bss
    main.o(i.main) refers to system_setup.o(i._Z12setup_systemv) for setup_system()
    main.o(i.main) refers to tasks.o(i.xTaskCreate) for xTaskCreate
    main.o(i.main) refers to sercom.o(i._ZN4UARTC1EP18sercom_registers_ti) for UART::UART(sercom_registers_t*, int)
    main.o(i.main) refers to rt_memcpy.o(.emb_text) for __aeabi_memcpy4
    main.o(i.main) refers to api.o(i._ZN13Smartmesh_APIC1EP4UART) for Smartmesh_API::Smartmesh_API(UART*)
    main.o(i.main) refers to queue.o(i.xQueueGenericSend) for xQueueGenericSend
    main.o(i.main) refers to tasks.o(i.vTaskStartScheduler) for vTaskStartScheduler
    main.o(i.main) refers to main.o(i._Z10setupParsePv) for setupParse(void*)
    main.o(i.main) refers to bluetooth.o(i._Z14bluetoothParsePv) for bluetoothParse(void*)
    main.o(i.main) refers to gsm_usart.o(i._Z8gsmParsePv) for gsmParse(void*)
    main.o(i.main) refers to main.o(.data) for .data
    main.o(i.main) refers to main.o(.bss) for .bss
    main.o(.ARM.exidx) refers to main.o(i._Z12verifyPackettPht) for i._Z12verifyPackettPht
    main.o(.ARM.exidx) refers to main.o(i._Z18parseSmartmeshDataPv) for i._Z18parseSmartmeshDataPv
    main.o(.ARM.exidx) refers to main.o(i._Z10setupParsePv) for i._Z10setupParsePv
    main.o(.ARM.exidx) refers to main.o(i.main) for i.main
    main.o(.ARM.exidx) refers to main.o(i.SERCOM0_Handler) for i.SERCOM0_Handler
    main.o(.ARM.exidx) refers to main.o(i.SERCOM1_Handler) for i.SERCOM1_Handler
    main.o(.ARM.exidx) refers to main.o(i.SERCOM2_Handler) for i.SERCOM2_Handler
    main.o(.ARM.exidx) refers to main.o(i.__sti___8_main_cpp_982d444f) for i.__sti___8_main_cpp_982d444f
    main.o(.init_array) refers to main.o(i.__sti___8_main_cpp_982d444f) for __sti___8_main_cpp_982d444f
    main.o(.init_array) refers to init_aeabi.o(.text) for __cpp_initialize__aeabi_
    system_setup.o(i._Z12setup_systemv) refers to rtc.o(i._Z9setup_rtcv) for setup_rtc()
    system_setup.o(i._Z12setup_systemv) refers to system_saml21g18b.o(.data) for SystemCoreClock
    system_setup.o(i._Z7verifyPtPht) refers to system_setup.o(.data) for .data
    system_setup.o(.ARM.exidx) refers to system_setup.o(i._Z7verifyPtPht) for i._Z7verifyPtPht
    system_setup.o(.ARM.exidx) refers to system_setup.o(i._Z12setup_systemv) for i._Z12setup_systemv
    bluetooth.o(i._Z14bluetoothParsePv) refers to queue.o(i.xQueueReceive) for xQueueReceive
    bluetooth.o(i._Z14bluetoothParsePv) refers to sercom.o(i._ZN4UART7_printfEPKcz) for UART::_printf(const char*, ...)
    bluetooth.o(i._Z14bluetoothParsePv) refers to main.o(.data) for bluetoothData
    bluetooth.o(.ARM.exidx) refers to bluetooth.o(i._Z14bluetoothParsePv) for i._Z14bluetoothParsePv
    sendingdata.o(i._Z8tcp_readv) refers to sercom.o(i._ZN4UART7_printfEPKcz) for UART::_printf(const char*, ...)
    sendingdata.o(i._Z8tcp_readv) refers to tasks.o(i.vTaskDelay) for vTaskDelay
    sendingdata.o(i._Z8tcp_readv) refers to main.o(.data) for gsm_usart
    sendingdata.o(i._Z9http_testv) refers to tasks.o(i.vTaskDelay) for vTaskDelay
    sendingdata.o(i._Z9http_testv) refers to sercom.o(i._ZN4UART7_printfEPKcz) for UART::_printf(const char*, ...)
    sendingdata.o(i._Z9http_testv) refers to main.o(.data) for gsm_usart
    sendingdata.o(i._Z9http_testv) refers to sendingdata.o(.conststring) for .conststring
    sendingdata.o(i._Z9tcp_writev) refers to gsm_usart.o(i._Z11at_send_cmdPKc15AT_COMMAND_TYPE) for at_send_cmd(const char*, AT_COMMAND_TYPE)
    sendingdata.o(i._Z9tcp_writev) refers to sendingdata.o(.conststring) for .conststring
    sendingdata.o(.ARM.exidx) refers to sendingdata.o(i._Z9http_testv) for i._Z9http_testv
    sendingdata.o(.ARM.exidx) refers to sendingdata.o(i._Z9tcp_writev) for i._Z9tcp_writev
    sendingdata.o(.ARM.exidx) refers to sendingdata.o(i._Z8tcp_readv) for i._Z8tcp_readv
    gsm_usart.o(i._Z11at_send_cmdPKc15AT_COMMAND_TYPE) refers to queue.o(i.xQueueSemaphoreTake) for xQueueSemaphoreTake
    gsm_usart.o(i._Z11at_send_cmdPKc15AT_COMMAND_TYPE) refers to sercom.o(i._ZN4UART7_printfEPKcz) for UART::_printf(const char*, ...)
    gsm_usart.o(i._Z11at_send_cmdPKc15AT_COMMAND_TYPE) refers to main.o(.data) for gsm_in_use
    gsm_usart.o(i._Z11at_send_cmdPKc15AT_COMMAND_TYPE) refers to main.o(.data) for at_cmd_type
    gsm_usart.o(i._Z11at_send_cmdPKc15AT_COMMAND_TYPE) refers to main.o(.data) for gsmReady
    gsm_usart.o(i._Z12parseGSMDataPv) refers to queue.o(i.xQueueSemaphoreTake) for xQueueSemaphoreTake
    gsm_usart.o(i._Z12parseGSMDataPv) refers to queue.o(i.xQueueReceiveFromISR) for xQueueReceiveFromISR
    gsm_usart.o(i._Z12parseGSMDataPv) refers to queue.o(i.xQueueGiveFromISR) for xQueueGiveFromISR
    gsm_usart.o(i._Z12parseGSMDataPv) refers to queue.o(i.xQueueGenericSend) for xQueueGenericSend
    gsm_usart.o(i._Z12parseGSMDataPv) refers to strstr.o(.text) for strstr
    gsm_usart.o(i._Z12parseGSMDataPv) refers to sercom.o(i._ZN4UART7_printfEPKcz) for UART::_printf(const char*, ...)
    gsm_usart.o(i._Z12parseGSMDataPv) refers to gsm_usart.o(i._Z16isValidIPAddressPKc) for isValidIPAddress(const char*)
    gsm_usart.o(i._Z12parseGSMDataPv) refers to tasks.o(i.vTaskDelete) for vTaskDelete
    gsm_usart.o(i._Z12parseGSMDataPv) refers to main.o(.data) for gsm_in_use
    gsm_usart.o(i._Z12parseGSMDataPv) refers to main.o(.bss) for responseGsmBuffer
    gsm_usart.o(i._Z16isValidIPAddressPKc) refers to _scanf_int.o(.text) for _scanf_int
    gsm_usart.o(i._Z16isValidIPAddressPKc) refers to _scanf_str.o(.text) for _scanf_string
    gsm_usart.o(i._Z16isValidIPAddressPKc) refers to strlen.o(.text) for strlen
    gsm_usart.o(i._Z16isValidIPAddressPKc) refers to rt_ctype_table.o(.text) for __rt_ctype_table
    gsm_usart.o(i._Z16isValidIPAddressPKc) refers to __0sscanf.o(.text) for __0sscanf
    gsm_usart.o(i._Z5at_OKPKc) refers to strstr.o(.text) for strstr
    gsm_usart.o(i._Z8at_ERRORPKc) refers to strstr.o(.text) for strstr
    gsm_usart.o(i._Z8gsmParsePv) refers to queue.o(i.xQueueSemaphoreTake) for xQueueSemaphoreTake
    gsm_usart.o(i._Z8gsmParsePv) refers to tasks.o(i.xTaskCreate) for xTaskCreate
    gsm_usart.o(i._Z8gsmParsePv) refers to main.o(.data) for gsmDataRecieved
    gsm_usart.o(i._Z8gsmParsePv) refers to gsm_usart.o(i._Z12parseGSMDataPv) for parseGSMData(void*)
    gsm_usart.o(i._Z9read_respPKc) refers to strncmp.o(.text) for strncmp
    gsm_usart.o(.ARM.exidx) refers to gsm_usart.o(i._Z5at_OKPKc) for i._Z5at_OKPKc
    gsm_usart.o(.ARM.exidx) refers to gsm_usart.o(i._Z9read_respPKc) for i._Z9read_respPKc
    gsm_usart.o(.ARM.exidx) refers to gsm_usart.o(i._Z8at_ERRORPKc) for i._Z8at_ERRORPKc
    gsm_usart.o(.ARM.exidx) refers to gsm_usart.o(i._Z11at_send_cmdPKc15AT_COMMAND_TYPE) for i._Z11at_send_cmdPKc15AT_COMMAND_TYPE
    gsm_usart.o(.ARM.exidx) refers to gsm_usart.o(i._Z16isValidIPAddressPKc) for i._Z16isValidIPAddressPKc
    gsm_usart.o(.ARM.exidx) refers to gsm_usart.o(i._Z12parseGSMDataPv) for i._Z12parseGSMDataPv
    gsm_usart.o(.ARM.exidx) refers to gsm_usart.o(i._Z8gsmParsePv) for i._Z8gsmParsePv
    rtc.o(.ARM.exidx) refers to rtc.o(i._Z9setup_rtcv) for i._Z9setup_rtcv
    rtc.o(.ARM.exidx) refers to rtc.o(i._Z13set_timestampP9timestamp) for i._Z13set_timestampP9timestamp
    rtc.o(.ARM.exidx) refers to rtc.o(i._Z13get_timestampP9timestamp) for i._Z13get_timestampP9timestamp
    sercom.o(i._ZN4UART10send_arrayEPhh) refers to queue.o(i.xQueueSemaphoreTake) for xQueueSemaphoreTake
    sercom.o(i._ZN4UART10send_arrayEPhh) refers to queue.o(i.xQueueGenericSend) for xQueueGenericSend
    sercom.o(i._ZN4UART10send_arrayEPhh) refers to main.o(.data) for dma_in_use
    sercom.o(i._ZN4UART7_printfEPKcz) refers to c89vsprintf.o(.text) for __c89vsprintf
    sercom.o(i._ZN4UART7_printfEPKcz) refers to queue.o(i.xQueueSemaphoreTake) for xQueueSemaphoreTake
    sercom.o(i._ZN4UART7_printfEPKcz) refers to queue.o(i.xQueueGenericSend) for xQueueGenericSend
    sercom.o(i._ZN4UART7_printfEPKcz) refers to sercom.o(.bss) for .bss
    sercom.o(i._ZN4UART7_printfEPKcz) refers to main.o(.data) for dma_in_use
    sercom.o(.ARM.exidx) refers to sercom.o(i._ZN4UARTC1EP18sercom_registers_ti) for i._ZN4UARTC1EP18sercom_registers_ti
    sercom.o(.ARM.exidx) refers to sercom.o(i._ZN4UART7_printfEPKcz) for i._ZN4UART7_printfEPKcz
    sercom.o(.ARM.exidx) refers to sercom.o(i._ZN4UART10send_arrayEPhh) for i._ZN4UART10send_arrayEPhh
    api.o(i._ZN13Smartmesh_API10setJoinKeyEPh) refers to api.o(i._ZN13Smartmesh_API11init_packetEhh) for Smartmesh_API::init_packet(unsigned char, unsigned char)
    api.o(i._ZN13Smartmesh_API10setJoinKeyEPh) refers to rt_memcpy.o(.text) for __aeabi_memcpy
    api.o(i._ZN13Smartmesh_API10setJoinKeyEPh) refers to api.o(i._ZN13Smartmesh_API12checksumDataEtPht) for Smartmesh_API::checksumData(unsigned short, unsigned char*, unsigned short)
    api.o(i._ZN13Smartmesh_API10setJoinKeyEPh) refers to sercom.o(i._ZN4UART10send_arrayEPhh) for UART::send_array(unsigned char*, unsigned char)
    api.o(i._ZN13Smartmesh_API11getMoteInfoEPh) refers to api.o(i._ZN13Smartmesh_API11init_packetEhh) for Smartmesh_API::init_packet(unsigned char, unsigned char)
    api.o(i._ZN13Smartmesh_API11getMoteInfoEPh) refers to rt_memcpy.o(.text) for __aeabi_memcpy
    api.o(i._ZN13Smartmesh_API11getMoteInfoEPh) refers to api.o(i._ZN13Smartmesh_API12checksumDataEtPht) for Smartmesh_API::checksumData(unsigned short, unsigned char*, unsigned short)
    api.o(i._ZN13Smartmesh_API11getMoteInfoEPh) refers to sercom.o(i._ZN4UART10send_arrayEPhh) for UART::send_array(unsigned char*, unsigned char)
    api.o(i._ZN13Smartmesh_API12checksumDataEtPht) refers to api.o(.data) for .data
    api.o(i._ZN13Smartmesh_API12resetManagerEv) refers to api.o(i._ZN13Smartmesh_API11init_packetEhh) for Smartmesh_API::init_packet(unsigned char, unsigned char)
    api.o(i._ZN13Smartmesh_API12resetManagerEv) refers to rt_memclr.o(.text) for __aeabi_memclr
    api.o(i._ZN13Smartmesh_API12resetManagerEv) refers to api.o(i._ZN13Smartmesh_API12checksumDataEtPht) for Smartmesh_API::checksumData(unsigned short, unsigned char*, unsigned short)
    api.o(i._ZN13Smartmesh_API12resetManagerEv) refers to sercom.o(i._ZN4UART10send_arrayEPhh) for UART::send_array(unsigned char*, unsigned char)
    api.o(i._ZN13Smartmesh_API12verifyPacketEtPht) refers to api.o(.data) for .data
    api.o(i._ZN13Smartmesh_API14getNetworkInfoEv) refers to api.o(i._ZN13Smartmesh_API11init_packetEhh) for Smartmesh_API::init_packet(unsigned char, unsigned char)
    api.o(i._ZN13Smartmesh_API14getNetworkInfoEv) refers to api.o(i._ZN13Smartmesh_API12checksumDataEtPht) for Smartmesh_API::checksumData(unsigned short, unsigned char*, unsigned short)
    api.o(i._ZN13Smartmesh_API14getNetworkInfoEv) refers to sercom.o(i._ZN4UART10send_arrayEPhh) for UART::send_array(unsigned char*, unsigned char)
    api.o(i._ZN13Smartmesh_API15clearStatisticsEv) refers to api.o(i._ZN13Smartmesh_API11init_packetEhh) for Smartmesh_API::init_packet(unsigned char, unsigned char)
    api.o(i._ZN13Smartmesh_API15clearStatisticsEv) refers to api.o(i._ZN13Smartmesh_API12checksumDataEtPht) for Smartmesh_API::checksumData(unsigned short, unsigned char*, unsigned short)
    api.o(i._ZN13Smartmesh_API15clearStatisticsEv) refers to sercom.o(i._ZN4UART10send_arrayEPhh) for UART::send_array(unsigned char*, unsigned char)
    api.o(i._ZN13Smartmesh_API15getHardwareInfoEv) refers to api.o(i._ZN13Smartmesh_API11init_packetEhh) for Smartmesh_API::init_packet(unsigned char, unsigned char)
    api.o(i._ZN13Smartmesh_API15getHardwareInfoEv) refers to api.o(i._ZN13Smartmesh_API12checksumDataEtPht) for Smartmesh_API::checksumData(unsigned short, unsigned char*, unsigned short)
    api.o(i._ZN13Smartmesh_API15getHardwareInfoEv) refers to sercom.o(i._ZN4UART10send_arrayEPhh) for UART::send_array(unsigned char*, unsigned char)
    api.o(i._ZN13Smartmesh_API16getNetworkConfigEv) refers to api.o(i._ZN13Smartmesh_API11init_packetEhh) for Smartmesh_API::init_packet(unsigned char, unsigned char)
    api.o(i._ZN13Smartmesh_API16getNetworkConfigEv) refers to api.o(i._ZN13Smartmesh_API12checksumDataEtPht) for Smartmesh_API::checksumData(unsigned short, unsigned char*, unsigned short)
    api.o(i._ZN13Smartmesh_API16getNetworkConfigEv) refers to sercom.o(i._ZN4UART10send_arrayEPhh) for UART::send_array(unsigned char*, unsigned char)
    api.o(i._ZN13Smartmesh_API16parseGetMoteInfoEP9mote_infoPh) refers to rt_memcpy.o(.text) for __aeabi_memcpy
    api.o(i._ZN13Smartmesh_API16parseNetworkInfoEP12network_infoPh) refers to rt_memcpy.o(.text) for __aeabi_memcpy
    api.o(i._ZN13Smartmesh_API16parseNetworkInfoEP12network_infoPh) refers to api.o(i._ZN13Smartmesh_API12verifyPacketEtPht) for Smartmesh_API::verifyPacket(unsigned short, unsigned char*, unsigned short)
    api.o(i._ZN13Smartmesh_API16setNetworkConfigEPh) refers to api.o(i._ZN13Smartmesh_API11init_packetEhh) for Smartmesh_API::init_packet(unsigned char, unsigned char)
    api.o(i._ZN13Smartmesh_API16setNetworkConfigEPh) refers to api.o(i._ZN13Smartmesh_API12checksumDataEtPht) for Smartmesh_API::checksumData(unsigned short, unsigned char*, unsigned short)
    api.o(i._ZN13Smartmesh_API16setNetworkConfigEPh) refers to sercom.o(i._ZN4UART10send_arrayEPhh) for UART::send_array(unsigned char*, unsigned char)
    api.o(i._ZN13Smartmesh_API17parseHardwareInfoEP11system_infoPh) refers to rt_memcpy.o(.text) for __aeabi_memcpy
    api.o(i._ZN13Smartmesh_API21parseDataNotificationEP10data_notifPh) refers to rt_memcpy.o(.text) for __aeabi_memcpy
    api.o(i._ZN13Smartmesh_API21parseDataNotificationEP10data_notifPh) refers to api.o(i._ZN13Smartmesh_API12verifyPacketEtPht) for Smartmesh_API::verifyPacket(unsigned short, unsigned char*, unsigned short)
    api.o(i._ZN13Smartmesh_API21parseDataNotificationEP10data_notifPh) refers to aeabi_memset.o(.text) for __aeabi_memset
    api.o(i._ZN13Smartmesh_API23getMoteConfigFromMoteIdEt) refers to api.o(i._ZN13Smartmesh_API11init_packetEhh) for Smartmesh_API::init_packet(unsigned char, unsigned char)
    api.o(i._ZN13Smartmesh_API23getMoteConfigFromMoteIdEt) refers to api.o(i._ZN13Smartmesh_API12checksumDataEtPht) for Smartmesh_API::checksumData(unsigned short, unsigned char*, unsigned short)
    api.o(i._ZN13Smartmesh_API23getMoteConfigFromMoteIdEt) refers to sercom.o(i._ZN4UART10send_arrayEPhh) for UART::send_array(unsigned char*, unsigned char)
    api.o(i._ZN13Smartmesh_API8mgr_initEv) refers to api.o(i._ZN13Smartmesh_API11init_packetEhh) for Smartmesh_API::init_packet(unsigned char, unsigned char)
    api.o(i._ZN13Smartmesh_API8mgr_initEv) refers to api.o(i._ZN13Smartmesh_API12checksumDataEtPht) for Smartmesh_API::checksumData(unsigned short, unsigned char*, unsigned short)
    api.o(i._ZN13Smartmesh_API8mgr_initEv) refers to sercom.o(i._ZN4UART10send_arrayEPhh) for UART::send_array(unsigned char*, unsigned char)
    api.o(i._ZN13Smartmesh_API8sendDataEyhttPhh) refers to api.o(i._ZN13Smartmesh_API11init_packetEhh) for Smartmesh_API::init_packet(unsigned char, unsigned char)
    api.o(i._ZN13Smartmesh_API8sendDataEyhttPhh) refers to rt_memcpy.o(.text) for __aeabi_memcpy
    api.o(i._ZN13Smartmesh_API8sendDataEyhttPhh) refers to api.o(i._ZN13Smartmesh_API12checksumDataEtPht) for Smartmesh_API::checksumData(unsigned short, unsigned char*, unsigned short)
    api.o(i._ZN13Smartmesh_API9subscribeEjj) refers to api.o(i._ZN13Smartmesh_API11init_packetEhh) for Smartmesh_API::init_packet(unsigned char, unsigned char)
    api.o(i._ZN13Smartmesh_API9subscribeEjj) refers to rt_memcpy.o(.text) for __aeabi_memcpy
    api.o(i._ZN13Smartmesh_API9subscribeEjj) refers to api.o(i._ZN13Smartmesh_API12checksumDataEtPht) for Smartmesh_API::checksumData(unsigned short, unsigned char*, unsigned short)
    api.o(i._ZN13Smartmesh_API9subscribeEjj) refers to sercom.o(i._ZN4UART10send_arrayEPhh) for UART::send_array(unsigned char*, unsigned char)
    api.o(.ARM.exidx) refers to api.o(i._ZN13Smartmesh_APIC1EP4UART) for i._ZN13Smartmesh_APIC1EP4UART
    api.o(.ARM.exidx) refers to api.o(i._ZN13Smartmesh_API12checksumDataEtPht) for i._ZN13Smartmesh_API12checksumDataEtPht
    api.o(.ARM.exidx) refers to api.o(i._ZN13Smartmesh_API11init_packetEhh) for i._ZN13Smartmesh_API11init_packetEhh
    api.o(.ARM.exidx) refers to api.o(i._ZN13Smartmesh_API8mgr_initEv) for i._ZN13Smartmesh_API8mgr_initEv
    api.o(.ARM.exidx) refers to api.o(i._ZN13Smartmesh_API9subscribeEjj) for i._ZN13Smartmesh_API9subscribeEjj
    api.o(.ARM.exidx) refers to api.o(i._ZN13Smartmesh_API8sendDataEyhttPhh) for i._ZN13Smartmesh_API8sendDataEyhttPhh
    api.o(.ARM.exidx) refers to api.o(i._ZN13Smartmesh_API10packetTypeEPh) for i._ZN13Smartmesh_API10packetTypeEPh
    api.o(.ARM.exidx) refers to api.o(i._ZN13Smartmesh_API14getNetworkInfoEv) for i._ZN13Smartmesh_API14getNetworkInfoEv
    api.o(.ARM.exidx) refers to api.o(i._ZN13Smartmesh_API12verifyPacketEtPht) for i._ZN13Smartmesh_API12verifyPacketEtPht
    api.o(.ARM.exidx) refers to api.o(i._ZN13Smartmesh_API21parseDataNotificationEP10data_notifPh) for i._ZN13Smartmesh_API21parseDataNotificationEP10data_notifPh
    api.o(.ARM.exidx) refers to api.o(i._ZN13Smartmesh_API16parseNetworkInfoEP12network_infoPh) for i._ZN13Smartmesh_API16parseNetworkInfoEP12network_infoPh
    api.o(.ARM.exidx) refers to api.o(i._ZN13Smartmesh_API15clearStatisticsEv) for i._ZN13Smartmesh_API15clearStatisticsEv
    api.o(.ARM.exidx) refers to api.o(i._ZN13Smartmesh_API15getHardwareInfoEv) for i._ZN13Smartmesh_API15getHardwareInfoEv
    api.o(.ARM.exidx) refers to api.o(i._ZN13Smartmesh_API17parseHardwareInfoEP11system_infoPh) for i._ZN13Smartmesh_API17parseHardwareInfoEP11system_infoPh
    api.o(.ARM.exidx) refers to api.o(i._ZN13Smartmesh_API16setNetworkConfigEPh) for i._ZN13Smartmesh_API16setNetworkConfigEPh
    api.o(.ARM.exidx) refers to api.o(i._ZN13Smartmesh_API16getNetworkConfigEv) for i._ZN13Smartmesh_API16getNetworkConfigEv
    api.o(.ARM.exidx) refers to api.o(i._ZN13Smartmesh_API10setJoinKeyEPh) for i._ZN13Smartmesh_API10setJoinKeyEPh
    api.o(.ARM.exidx) refers to api.o(i._ZN13Smartmesh_API23getMoteConfigFromMoteIdEt) for i._ZN13Smartmesh_API23getMoteConfigFromMoteIdEt
    api.o(.ARM.exidx) refers to api.o(i._ZN13Smartmesh_API11getMoteInfoEPh) for i._ZN13Smartmesh_API11getMoteInfoEPh
    api.o(.ARM.exidx) refers to api.o(i._ZN13Smartmesh_API16parseGetMoteInfoEP9mote_infoPh) for i._ZN13Smartmesh_API16parseGetMoteInfoEP9mote_infoPh
    api.o(.ARM.exidx) refers to api.o(i._ZN13Smartmesh_API12resetManagerEv) for i._ZN13Smartmesh_API12resetManagerEv
    clib_arm.o(i.__user_perthread_libspace) refers to clib_arm.o(i.os_kernel_is_active) for os_kernel_is_active
    clib_arm.o(i.__user_perthread_libspace) refers to tasks.o(i.xTaskGetCurrentTaskHandle) for xTaskGetCurrentTaskHandle
    clib_arm.o(i.__user_perthread_libspace) refers to clib_arm.o(.bss) for .bss
    clib_arm.o(i._mutex_acquire) refers to clib_arm.o(i.os_kernel_is_active) for os_kernel_is_active
    clib_arm.o(i._mutex_acquire) refers to queue.o(i.xQueueSemaphoreTake) for xQueueSemaphoreTake
    clib_arm.o(i._mutex_free) refers to queue.o(i.vQueueDelete) for vQueueDelete
    clib_arm.o(i._mutex_free) refers to clib_arm.o(.bss) for .bss
    clib_arm.o(i._mutex_initialize) refers to clib_arm.o(i.os_kernel_is_active) for os_kernel_is_active
    clib_arm.o(i._mutex_initialize) refers to queue.o(i.xQueueCreateMutex) for xQueueCreateMutex
    clib_arm.o(i._mutex_initialize) refers to queue.o(i.xQueueCreateMutexStatic) for xQueueCreateMutexStatic
    clib_arm.o(i._mutex_initialize) refers to clib_arm.o(.bss) for .bss
    clib_arm.o(i._mutex_release) refers to clib_arm.o(i.os_kernel_is_active) for os_kernel_is_active
    clib_arm.o(i._mutex_release) refers to queue.o(i.xQueueGenericSend) for xQueueGenericSend
    clib_arm.o(i.os_kernel_is_active) refers to tasks.o(i.xTaskGetSchedulerState) for xTaskGetSchedulerState
    cmsis_os2.o(i.IRQ_Context) refers to tasks.o(i.xTaskGetSchedulerState) for xTaskGetSchedulerState
    cmsis_os2.o(i.SysTick_Handler) refers to tasks.o(i.xTaskGetSchedulerState) for xTaskGetSchedulerState
    cmsis_os2.o(i.SysTick_Handler) refers to port.o(i.xPortSysTickHandler) for xPortSysTickHandler
    cmsis_os2.o(i.TimerCallback) refers to timers.o(i.pvTimerGetTimerID) for pvTimerGetTimerID
    cmsis_os2.o(i.osDelay) refers to cmsis_os2.o(i.IRQ_Context) for IRQ_Context
    cmsis_os2.o(i.osDelay) refers to tasks.o(i.vTaskDelay) for vTaskDelay
    cmsis_os2.o(i.osDelayUntil) refers to cmsis_os2.o(i.IRQ_Context) for IRQ_Context
    cmsis_os2.o(i.osDelayUntil) refers to tasks.o(i.xTaskGetTickCount) for xTaskGetTickCount
    cmsis_os2.o(i.osDelayUntil) refers to tasks.o(i.xTaskDelayUntil) for xTaskDelayUntil
    cmsis_os2.o(i.osEventFlagsClear) refers to cmsis_os2.o(i.IRQ_Context) for IRQ_Context
    cmsis_os2.o(i.osEventFlagsClear) refers to event_groups.o(i.xEventGroupGetBitsFromISR) for xEventGroupGetBitsFromISR
    cmsis_os2.o(i.osEventFlagsClear) refers to event_groups.o(i.xEventGroupClearBitsFromISR) for xEventGroupClearBitsFromISR
    cmsis_os2.o(i.osEventFlagsClear) refers to event_groups.o(i.xEventGroupClearBits) for xEventGroupClearBits
    cmsis_os2.o(i.osEventFlagsDelete) refers to cmsis_os2.o(i.IRQ_Context) for IRQ_Context
    cmsis_os2.o(i.osEventFlagsDelete) refers to event_groups.o(i.vEventGroupDelete) for vEventGroupDelete
    cmsis_os2.o(i.osEventFlagsGet) refers to cmsis_os2.o(i.IRQ_Context) for IRQ_Context
    cmsis_os2.o(i.osEventFlagsGet) refers to event_groups.o(i.xEventGroupGetBitsFromISR) for xEventGroupGetBitsFromISR
    cmsis_os2.o(i.osEventFlagsGet) refers to event_groups.o(i.xEventGroupClearBits) for xEventGroupClearBits
    cmsis_os2.o(i.osEventFlagsNew) refers to cmsis_os2.o(i.IRQ_Context) for IRQ_Context
    cmsis_os2.o(i.osEventFlagsNew) refers to event_groups.o(i.xEventGroupCreateStatic) for xEventGroupCreateStatic
    cmsis_os2.o(i.osEventFlagsNew) refers to event_groups.o(i.xEventGroupCreate) for xEventGroupCreate
    cmsis_os2.o(i.osEventFlagsSet) refers to cmsis_os2.o(i.IRQ_Context) for IRQ_Context
    cmsis_os2.o(i.osEventFlagsSet) refers to event_groups.o(i.xEventGroupSetBitsFromISR) for xEventGroupSetBitsFromISR
    cmsis_os2.o(i.osEventFlagsSet) refers to event_groups.o(i.xEventGroupSetBits) for xEventGroupSetBits
    cmsis_os2.o(i.osEventFlagsWait) refers to cmsis_os2.o(i.IRQ_Context) for IRQ_Context
    cmsis_os2.o(i.osEventFlagsWait) refers to event_groups.o(i.xEventGroupWaitBits) for xEventGroupWaitBits
    cmsis_os2.o(i.osKernelGetInfo) refers to rt_memcpy.o(.text) for __aeabi_memcpy
    cmsis_os2.o(i.osKernelGetState) refers to tasks.o(i.xTaskGetSchedulerState) for xTaskGetSchedulerState
    cmsis_os2.o(i.osKernelGetState) refers to cmsis_os2.o(.data) for .data
    cmsis_os2.o(i.osKernelGetSysTimerCount) refers to tasks.o(i.xTaskGetTickCount) for xTaskGetTickCount
    cmsis_os2.o(i.osKernelGetSysTimerCount) refers to os_systick.o(i.OS_Tick_GetCount) for OS_Tick_GetCount
    cmsis_os2.o(i.osKernelGetSysTimerCount) refers to os_systick.o(i.OS_Tick_GetOverflow) for OS_Tick_GetOverflow
    cmsis_os2.o(i.osKernelGetSysTimerCount) refers to os_systick.o(i.OS_Tick_GetInterval) for OS_Tick_GetInterval
    cmsis_os2.o(i.osKernelGetSysTimerFreq) refers to system_saml21g18b.o(.data) for SystemCoreClock
    cmsis_os2.o(i.osKernelGetTickCount) refers to cmsis_os2.o(i.IRQ_Context) for IRQ_Context
    cmsis_os2.o(i.osKernelGetTickCount) refers to tasks.o(i.xTaskGetTickCountFromISR) for xTaskGetTickCountFromISR
    cmsis_os2.o(i.osKernelGetTickCount) refers to tasks.o(i.xTaskGetTickCount) for xTaskGetTickCount
    cmsis_os2.o(i.osKernelInitialize) refers to cmsis_os2.o(i.IRQ_Context) for IRQ_Context
    cmsis_os2.o(i.osKernelInitialize) refers to tasks.o(i.xTaskGetSchedulerState) for xTaskGetSchedulerState
    cmsis_os2.o(i.osKernelInitialize) refers to cmsis_os2.o(.data) for .data
    cmsis_os2.o(i.osKernelLock) refers to cmsis_os2.o(i.IRQ_Context) for IRQ_Context
    cmsis_os2.o(i.osKernelLock) refers to tasks.o(i.xTaskGetSchedulerState) for xTaskGetSchedulerState
    cmsis_os2.o(i.osKernelLock) refers to tasks.o(i.vTaskSuspendAll) for vTaskSuspendAll
    cmsis_os2.o(i.osKernelRestoreLock) refers to cmsis_os2.o(i.IRQ_Context) for IRQ_Context
    cmsis_os2.o(i.osKernelRestoreLock) refers to tasks.o(i.xTaskGetSchedulerState) for xTaskGetSchedulerState
    cmsis_os2.o(i.osKernelRestoreLock) refers to tasks.o(i.vTaskSuspendAll) for vTaskSuspendAll
    cmsis_os2.o(i.osKernelRestoreLock) refers to tasks.o(i.xTaskResumeAll) for xTaskResumeAll
    cmsis_os2.o(i.osKernelStart) refers to cmsis_os2.o(i.IRQ_Context) for IRQ_Context
    cmsis_os2.o(i.osKernelStart) refers to tasks.o(i.xTaskGetSchedulerState) for xTaskGetSchedulerState
    cmsis_os2.o(i.osKernelStart) refers to tasks.o(i.vTaskStartScheduler) for vTaskStartScheduler
    cmsis_os2.o(i.osKernelStart) refers to cmsis_os2.o(.data) for .data
    cmsis_os2.o(i.osKernelUnlock) refers to cmsis_os2.o(i.IRQ_Context) for IRQ_Context
    cmsis_os2.o(i.osKernelUnlock) refers to tasks.o(i.xTaskGetSchedulerState) for xTaskGetSchedulerState
    cmsis_os2.o(i.osKernelUnlock) refers to tasks.o(i.xTaskResumeAll) for xTaskResumeAll
    cmsis_os2.o(i.osMemoryPoolAlloc) refers to cmsis_os2.o(i.IRQ_Context) for IRQ_Context
    cmsis_os2.o(i.osMemoryPoolAlloc) refers to queue.o(i.xQueueReceiveFromISR) for xQueueReceiveFromISR
    cmsis_os2.o(i.osMemoryPoolAlloc) refers to port.o(.emb_text) for ulSetInterruptMaskFromISR
    cmsis_os2.o(i.osMemoryPoolAlloc) refers to cmsis_os2.o(i.AllocBlock) for AllocBlock
    cmsis_os2.o(i.osMemoryPoolAlloc) refers to cmsis_os2.o(i.CreateBlock) for CreateBlock
    cmsis_os2.o(i.osMemoryPoolAlloc) refers to queue.o(i.xQueueSemaphoreTake) for xQueueSemaphoreTake
    cmsis_os2.o(i.osMemoryPoolAlloc) refers to port.o(i.vPortEnterCritical) for vPortEnterCritical
    cmsis_os2.o(i.osMemoryPoolAlloc) refers to port.o(i.vPortExitCritical) for vPortExitCritical
    cmsis_os2.o(i.osMemoryPoolDelete) refers to cmsis_os2.o(i.IRQ_Context) for IRQ_Context
    cmsis_os2.o(i.osMemoryPoolDelete) refers to port.o(i.vPortEnterCritical) for vPortEnterCritical
    cmsis_os2.o(i.osMemoryPoolDelete) refers to queue.o(i.xQueueGenericSend) for xQueueGenericSend
    cmsis_os2.o(i.osMemoryPoolDelete) refers to heap_4.o(i.vPortFree) for vPortFree
    cmsis_os2.o(i.osMemoryPoolDelete) refers to port.o(i.vPortExitCritical) for vPortExitCritical
    cmsis_os2.o(i.osMemoryPoolFree) refers to cmsis_os2.o(i.IRQ_Context) for IRQ_Context
    cmsis_os2.o(i.osMemoryPoolFree) refers to queue.o(i.uxQueueMessagesWaitingFromISR) for uxQueueMessagesWaitingFromISR
    cmsis_os2.o(i.osMemoryPoolFree) refers to port.o(.emb_text) for ulSetInterruptMaskFromISR
    cmsis_os2.o(i.osMemoryPoolFree) refers to cmsis_os2.o(i.FreeBlock) for FreeBlock
    cmsis_os2.o(i.osMemoryPoolFree) refers to queue.o(i.xQueueGiveFromISR) for xQueueGiveFromISR
    cmsis_os2.o(i.osMemoryPoolFree) refers to queue.o(i.uxQueueMessagesWaiting) for uxQueueMessagesWaiting
    cmsis_os2.o(i.osMemoryPoolFree) refers to port.o(i.vPortEnterCritical) for vPortEnterCritical
    cmsis_os2.o(i.osMemoryPoolFree) refers to port.o(i.vPortExitCritical) for vPortExitCritical
    cmsis_os2.o(i.osMemoryPoolFree) refers to queue.o(i.xQueueGenericSend) for xQueueGenericSend
    cmsis_os2.o(i.osMemoryPoolGetCount) refers to cmsis_os2.o(i.IRQ_Context) for IRQ_Context
    cmsis_os2.o(i.osMemoryPoolGetCount) refers to queue.o(i.uxQueueMessagesWaitingFromISR) for uxQueueMessagesWaitingFromISR
    cmsis_os2.o(i.osMemoryPoolGetCount) refers to queue.o(i.uxQueueMessagesWaiting) for uxQueueMessagesWaiting
    cmsis_os2.o(i.osMemoryPoolGetName) refers to cmsis_os2.o(i.IRQ_Context) for IRQ_Context
    cmsis_os2.o(i.osMemoryPoolGetSpace) refers to cmsis_os2.o(i.IRQ_Context) for IRQ_Context
    cmsis_os2.o(i.osMemoryPoolGetSpace) refers to queue.o(i.uxQueueMessagesWaitingFromISR) for uxQueueMessagesWaitingFromISR
    cmsis_os2.o(i.osMemoryPoolGetSpace) refers to queue.o(i.uxQueueMessagesWaiting) for uxQueueMessagesWaiting
    cmsis_os2.o(i.osMemoryPoolNew) refers to cmsis_os2.o(i.IRQ_Context) for IRQ_Context
    cmsis_os2.o(i.osMemoryPoolNew) refers to queue.o(i.xQueueCreateCountingSemaphoreStatic) for xQueueCreateCountingSemaphoreStatic
    cmsis_os2.o(i.osMemoryPoolNew) refers to heap_4.o(i.pvPortMalloc) for pvPortMalloc
    cmsis_os2.o(i.osMemoryPoolNew) refers to heap_4.o(i.vPortFree) for vPortFree
    cmsis_os2.o(i.osMessageQueueDelete) refers to cmsis_os2.o(i.IRQ_Context) for IRQ_Context
    cmsis_os2.o(i.osMessageQueueDelete) refers to queue.o(i.vQueueDelete) for vQueueDelete
    cmsis_os2.o(i.osMessageQueueGet) refers to cmsis_os2.o(i.IRQ_Context) for IRQ_Context
    cmsis_os2.o(i.osMessageQueueGet) refers to queue.o(i.xQueueReceiveFromISR) for xQueueReceiveFromISR
    cmsis_os2.o(i.osMessageQueueGet) refers to queue.o(i.xQueueReceive) for xQueueReceive
    cmsis_os2.o(i.osMessageQueueGetCount) refers to cmsis_os2.o(i.IRQ_Context) for IRQ_Context
    cmsis_os2.o(i.osMessageQueueGetCount) refers to queue.o(i.uxQueueMessagesWaitingFromISR) for uxQueueMessagesWaitingFromISR
    cmsis_os2.o(i.osMessageQueueGetCount) refers to queue.o(i.uxQueueMessagesWaiting) for uxQueueMessagesWaiting
    cmsis_os2.o(i.osMessageQueueGetSpace) refers to cmsis_os2.o(i.IRQ_Context) for IRQ_Context
    cmsis_os2.o(i.osMessageQueueGetSpace) refers to port.o(.emb_text) for ulSetInterruptMaskFromISR
    cmsis_os2.o(i.osMessageQueueGetSpace) refers to queue.o(i.uxQueueSpacesAvailable) for uxQueueSpacesAvailable
    cmsis_os2.o(i.osMessageQueueNew) refers to cmsis_os2.o(i.IRQ_Context) for IRQ_Context
    cmsis_os2.o(i.osMessageQueueNew) refers to queue.o(i.xQueueGenericCreateStatic) for xQueueGenericCreateStatic
    cmsis_os2.o(i.osMessageQueueNew) refers to queue.o(i.xQueueGenericCreate) for xQueueGenericCreate
    cmsis_os2.o(i.osMessageQueuePut) refers to cmsis_os2.o(i.IRQ_Context) for IRQ_Context
    cmsis_os2.o(i.osMessageQueuePut) refers to queue.o(i.xQueueGenericSendFromISR) for xQueueGenericSendFromISR
    cmsis_os2.o(i.osMessageQueuePut) refers to queue.o(i.xQueueGenericSend) for xQueueGenericSend
    cmsis_os2.o(i.osMessageQueueReset) refers to cmsis_os2.o(i.IRQ_Context) for IRQ_Context
    cmsis_os2.o(i.osMessageQueueReset) refers to queue.o(i.xQueueGenericReset) for xQueueGenericReset
    cmsis_os2.o(i.osMutexAcquire) refers to cmsis_os2.o(i.IRQ_Context) for IRQ_Context
    cmsis_os2.o(i.osMutexAcquire) refers to queue.o(i.xQueueTakeMutexRecursive) for xQueueTakeMutexRecursive
    cmsis_os2.o(i.osMutexAcquire) refers to queue.o(i.xQueueSemaphoreTake) for xQueueSemaphoreTake
    cmsis_os2.o(i.osMutexDelete) refers to cmsis_os2.o(i.IRQ_Context) for IRQ_Context
    cmsis_os2.o(i.osMutexDelete) refers to queue.o(i.vQueueDelete) for vQueueDelete
    cmsis_os2.o(i.osMutexGetOwner) refers to cmsis_os2.o(i.IRQ_Context) for IRQ_Context
    cmsis_os2.o(i.osMutexGetOwner) refers to queue.o(i.xQueueGetMutexHolder) for xQueueGetMutexHolder
    cmsis_os2.o(i.osMutexNew) refers to cmsis_os2.o(i.IRQ_Context) for IRQ_Context
    cmsis_os2.o(i.osMutexNew) refers to queue.o(i.xQueueCreateMutexStatic) for xQueueCreateMutexStatic
    cmsis_os2.o(i.osMutexNew) refers to queue.o(i.xQueueCreateMutex) for xQueueCreateMutex
    cmsis_os2.o(i.osMutexRelease) refers to cmsis_os2.o(i.IRQ_Context) for IRQ_Context
    cmsis_os2.o(i.osMutexRelease) refers to queue.o(i.xQueueGiveMutexRecursive) for xQueueGiveMutexRecursive
    cmsis_os2.o(i.osMutexRelease) refers to queue.o(i.xQueueGenericSend) for xQueueGenericSend
    cmsis_os2.o(i.osSemaphoreAcquire) refers to cmsis_os2.o(i.IRQ_Context) for IRQ_Context
    cmsis_os2.o(i.osSemaphoreAcquire) refers to queue.o(i.xQueueReceiveFromISR) for xQueueReceiveFromISR
    cmsis_os2.o(i.osSemaphoreAcquire) refers to queue.o(i.xQueueSemaphoreTake) for xQueueSemaphoreTake
    cmsis_os2.o(i.osSemaphoreDelete) refers to cmsis_os2.o(i.IRQ_Context) for IRQ_Context
    cmsis_os2.o(i.osSemaphoreDelete) refers to queue.o(i.vQueueDelete) for vQueueDelete
    cmsis_os2.o(i.osSemaphoreGetCount) refers to cmsis_os2.o(i.IRQ_Context) for IRQ_Context
    cmsis_os2.o(i.osSemaphoreGetCount) refers to queue.o(i.uxQueueMessagesWaitingFromISR) for uxQueueMessagesWaitingFromISR
    cmsis_os2.o(i.osSemaphoreGetCount) refers to queue.o(i.uxQueueMessagesWaiting) for uxQueueMessagesWaiting
    cmsis_os2.o(i.osSemaphoreNew) refers to cmsis_os2.o(i.IRQ_Context) for IRQ_Context
    cmsis_os2.o(i.osSemaphoreNew) refers to queue.o(i.xQueueCreateCountingSemaphore) for xQueueCreateCountingSemaphore
    cmsis_os2.o(i.osSemaphoreNew) refers to queue.o(i.xQueueGenericCreate) for xQueueGenericCreate
    cmsis_os2.o(i.osSemaphoreNew) refers to queue.o(i.xQueueGenericSend) for xQueueGenericSend
    cmsis_os2.o(i.osSemaphoreNew) refers to queue.o(i.vQueueDelete) for vQueueDelete
    cmsis_os2.o(i.osSemaphoreNew) refers to queue.o(i.xQueueGenericCreateStatic) for xQueueGenericCreateStatic
    cmsis_os2.o(i.osSemaphoreNew) refers to queue.o(i.xQueueCreateCountingSemaphoreStatic) for xQueueCreateCountingSemaphoreStatic
    cmsis_os2.o(i.osSemaphoreRelease) refers to cmsis_os2.o(i.IRQ_Context) for IRQ_Context
    cmsis_os2.o(i.osSemaphoreRelease) refers to queue.o(i.xQueueGiveFromISR) for xQueueGiveFromISR
    cmsis_os2.o(i.osSemaphoreRelease) refers to queue.o(i.xQueueGenericSend) for xQueueGenericSend
    cmsis_os2.o(i.osThreadEnumerate) refers to cmsis_os2.o(i.IRQ_Context) for IRQ_Context
    cmsis_os2.o(i.osThreadEnumerate) refers to tasks.o(i.vTaskSuspendAll) for vTaskSuspendAll
    cmsis_os2.o(i.osThreadEnumerate) refers to tasks.o(i.uxTaskGetNumberOfTasks) for uxTaskGetNumberOfTasks
    cmsis_os2.o(i.osThreadEnumerate) refers to heap_4.o(i.pvPortMalloc) for pvPortMalloc
    cmsis_os2.o(i.osThreadEnumerate) refers to tasks.o(i.uxTaskGetSystemState) for uxTaskGetSystemState
    cmsis_os2.o(i.osThreadEnumerate) refers to tasks.o(i.xTaskResumeAll) for xTaskResumeAll
    cmsis_os2.o(i.osThreadEnumerate) refers to heap_4.o(i.vPortFree) for vPortFree
    cmsis_os2.o(i.osThreadExit) refers to tasks.o(i.vTaskDelete) for vTaskDelete
    cmsis_os2.o(i.osThreadFlagsClear) refers to cmsis_os2.o(i.IRQ_Context) for IRQ_Context
    cmsis_os2.o(i.osThreadFlagsClear) refers to tasks.o(i.xTaskGetCurrentTaskHandle) for xTaskGetCurrentTaskHandle
    cmsis_os2.o(i.osThreadFlagsClear) refers to tasks.o(i.xTaskGenericNotify) for xTaskGenericNotify
    cmsis_os2.o(i.osThreadFlagsGet) refers to cmsis_os2.o(i.IRQ_Context) for IRQ_Context
    cmsis_os2.o(i.osThreadFlagsGet) refers to tasks.o(i.xTaskGetCurrentTaskHandle) for xTaskGetCurrentTaskHandle
    cmsis_os2.o(i.osThreadFlagsGet) refers to tasks.o(i.xTaskGenericNotify) for xTaskGenericNotify
    cmsis_os2.o(i.osThreadFlagsSet) refers to cmsis_os2.o(i.IRQ_Context) for IRQ_Context
    cmsis_os2.o(i.osThreadFlagsSet) refers to tasks.o(i.xTaskGenericNotifyFromISR) for xTaskGenericNotifyFromISR
    cmsis_os2.o(i.osThreadFlagsSet) refers to tasks.o(i.xTaskGenericNotify) for xTaskGenericNotify
    cmsis_os2.o(i.osThreadFlagsWait) refers to cmsis_os2.o(i.IRQ_Context) for IRQ_Context
    cmsis_os2.o(i.osThreadFlagsWait) refers to tasks.o(i.xTaskGetTickCount) for xTaskGetTickCount
    cmsis_os2.o(i.osThreadFlagsWait) refers to tasks.o(i.xTaskGenericNotifyWait) for xTaskGenericNotifyWait
    cmsis_os2.o(i.osThreadGetCount) refers to cmsis_os2.o(i.IRQ_Context) for IRQ_Context
    cmsis_os2.o(i.osThreadGetCount) refers to tasks.o(i.uxTaskGetNumberOfTasks) for uxTaskGetNumberOfTasks
    cmsis_os2.o(i.osThreadGetId) refers to tasks.o(i.xTaskGetCurrentTaskHandle) for xTaskGetCurrentTaskHandle
    cmsis_os2.o(i.osThreadGetName) refers to cmsis_os2.o(i.IRQ_Context) for IRQ_Context
    cmsis_os2.o(i.osThreadGetName) refers to tasks.o(i.pcTaskGetName) for pcTaskGetName
    cmsis_os2.o(i.osThreadGetPriority) refers to cmsis_os2.o(i.IRQ_Context) for IRQ_Context
    cmsis_os2.o(i.osThreadGetPriority) refers to tasks.o(i.uxTaskPriorityGet) for uxTaskPriorityGet
    cmsis_os2.o(i.osThreadGetStackSpace) refers to cmsis_os2.o(i.IRQ_Context) for IRQ_Context
    cmsis_os2.o(i.osThreadGetStackSpace) refers to tasks.o(i.uxTaskGetStackHighWaterMark) for uxTaskGetStackHighWaterMark
    cmsis_os2.o(i.osThreadGetState) refers to cmsis_os2.o(i.IRQ_Context) for IRQ_Context
    cmsis_os2.o(i.osThreadGetState) refers to tasks.o(i.eTaskGetState) for eTaskGetState
    cmsis_os2.o(i.osThreadGetState) refers to cmsis_os2.o(i.__ARM_common_switch8) for __ARM_common_switch8
    cmsis_os2.o(i.osThreadNew) refers to cmsis_os2.o(i.IRQ_Context) for IRQ_Context
    cmsis_os2.o(i.osThreadNew) refers to tasks.o(i.xTaskCreateStatic) for xTaskCreateStatic
    cmsis_os2.o(i.osThreadNew) refers to tasks.o(i.xTaskCreate) for xTaskCreate
    cmsis_os2.o(i.osThreadResume) refers to cmsis_os2.o(i.IRQ_Context) for IRQ_Context
    cmsis_os2.o(i.osThreadResume) refers to tasks.o(i.vTaskResume) for vTaskResume
    cmsis_os2.o(i.osThreadSetPriority) refers to cmsis_os2.o(i.IRQ_Context) for IRQ_Context
    cmsis_os2.o(i.osThreadSetPriority) refers to tasks.o(i.vTaskPrioritySet) for vTaskPrioritySet
    cmsis_os2.o(i.osThreadSuspend) refers to cmsis_os2.o(i.IRQ_Context) for IRQ_Context
    cmsis_os2.o(i.osThreadSuspend) refers to tasks.o(i.vTaskSuspend) for vTaskSuspend
    cmsis_os2.o(i.osThreadTerminate) refers to cmsis_os2.o(i.IRQ_Context) for IRQ_Context
    cmsis_os2.o(i.osThreadTerminate) refers to tasks.o(i.eTaskGetState) for eTaskGetState
    cmsis_os2.o(i.osThreadTerminate) refers to tasks.o(i.vTaskDelete) for vTaskDelete
    cmsis_os2.o(i.osThreadYield) refers to cmsis_os2.o(i.IRQ_Context) for IRQ_Context
    cmsis_os2.o(i.osThreadYield) refers to port.o(i.vPortYield) for vPortYield
    cmsis_os2.o(i.osTimerDelete) refers to cmsis_os2.o(i.IRQ_Context) for IRQ_Context
    cmsis_os2.o(i.osTimerDelete) refers to timers.o(i.pvTimerGetTimerID) for pvTimerGetTimerID
    cmsis_os2.o(i.osTimerDelete) refers to timers.o(i.xTimerGenericCommand) for xTimerGenericCommand
    cmsis_os2.o(i.osTimerDelete) refers to heap_4.o(i.vPortFree) for vPortFree
    cmsis_os2.o(i.osTimerGetName) refers to cmsis_os2.o(i.IRQ_Context) for IRQ_Context
    cmsis_os2.o(i.osTimerGetName) refers to timers.o(i.pcTimerGetName) for pcTimerGetName
    cmsis_os2.o(i.osTimerIsRunning) refers to cmsis_os2.o(i.IRQ_Context) for IRQ_Context
    cmsis_os2.o(i.osTimerIsRunning) refers to timers.o(i.xTimerIsTimerActive) for xTimerIsTimerActive
    cmsis_os2.o(i.osTimerNew) refers to cmsis_os2.o(i.IRQ_Context) for IRQ_Context
    cmsis_os2.o(i.osTimerNew) refers to heap_4.o(i.pvPortMalloc) for pvPortMalloc
    cmsis_os2.o(i.osTimerNew) refers to timers.o(i.xTimerCreateStatic) for xTimerCreateStatic
    cmsis_os2.o(i.osTimerNew) refers to timers.o(i.xTimerCreate) for xTimerCreate
    cmsis_os2.o(i.osTimerNew) refers to heap_4.o(i.vPortFree) for vPortFree
    cmsis_os2.o(i.osTimerNew) refers to cmsis_os2.o(i.TimerCallback) for TimerCallback
    cmsis_os2.o(i.osTimerStart) refers to cmsis_os2.o(i.IRQ_Context) for IRQ_Context
    cmsis_os2.o(i.osTimerStart) refers to timers.o(i.xTimerGenericCommand) for xTimerGenericCommand
    cmsis_os2.o(i.osTimerStop) refers to cmsis_os2.o(i.IRQ_Context) for IRQ_Context
    cmsis_os2.o(i.osTimerStop) refers to timers.o(i.xTimerIsTimerActive) for xTimerIsTimerActive
    cmsis_os2.o(i.osTimerStop) refers to timers.o(i.xTimerGenericCommand) for xTimerGenericCommand
    cmsis_os2.o(i.vApplicationGetIdleTaskMemory) refers to cmsis_os2.o(.bss) for .bss
    cmsis_os2.o(i.vApplicationGetTimerTaskMemory) refers to cmsis_os2.o(.bss) for .bss
    os_systick.o(i.OS_Tick_Disable) refers to os_systick.o(.data) for .data
    os_systick.o(i.OS_Tick_Enable) refers to os_systick.o(.data) for .data
    os_systick.o(i.OS_Tick_GetClock) refers to system_saml21g18b.o(.data) for SystemCoreClock
    os_systick.o(i.OS_Tick_Setup) refers to aeabi_sdiv.o(.text) for __aeabi_uidivmod
    os_systick.o(i.OS_Tick_Setup) refers to system_saml21g18b.o(.data) for SystemCoreClock
    os_systick.o(i.OS_Tick_Setup) refers to os_systick.o(.data) for .data
    startup_saml21g18b.o(STACK) refers (Special) to heapauxi.o(.text) for __use_two_region_memory
    startup_saml21g18b.o(HEAP) refers (Special) to heapauxi.o(.text) for __use_two_region_memory
    startup_saml21g18b.o(RESET) refers (Special) to heapauxi.o(.text) for __use_two_region_memory
    startup_saml21g18b.o(RESET) refers to startup_saml21g18b.o(STACK) for __initial_sp
    startup_saml21g18b.o(RESET) refers to startup_saml21g18b.o(.text) for Reset_Handler
    startup_saml21g18b.o(RESET) refers to port.o(i.SVC_Handler) for SVC_Handler
    startup_saml21g18b.o(RESET) refers to port.o(.emb_text) for PendSV_Handler
    startup_saml21g18b.o(RESET) refers to cmsis_os2.o(i.SysTick_Handler) for SysTick_Handler
    startup_saml21g18b.o(RESET) refers to main.o(i.SERCOM0_Handler) for SERCOM0_Handler
    startup_saml21g18b.o(RESET) refers to main.o(i.SERCOM1_Handler) for SERCOM1_Handler
    startup_saml21g18b.o(RESET) refers to main.o(i.SERCOM2_Handler) for SERCOM2_Handler
    startup_saml21g18b.o(.text) refers (Special) to heapauxi.o(.text) for __use_two_region_memory
    startup_saml21g18b.o(.text) refers to system_saml21g18b.o(i.SystemInit) for SystemInit
    startup_saml21g18b.o(.text) refers to __main.o(!!!main) for __main
    startup_saml21g18b.o(.text) refers to startup_saml21g18b.o(HEAP) for Heap_Mem
    startup_saml21g18b.o(.text) refers to startup_saml21g18b.o(STACK) for Stack_Mem
    system_saml21g18b.o(i.SystemCoreClockUpdate) refers to system_saml21g18b.o(.data) for .data
    system_saml21g18b.o(i.SystemInit) refers to system_saml21g18b.o(.data) for .data
    event_groups.o(i.vEventGroupClearBitsCallback) refers to event_groups.o(i.xEventGroupClearBits) for xEventGroupClearBits
    event_groups.o(i.vEventGroupDelete) refers to tasks.o(i.vTaskSuspendAll) for vTaskSuspendAll
    event_groups.o(i.vEventGroupDelete) refers to tasks.o(i.vTaskRemoveFromUnorderedEventList) for vTaskRemoveFromUnorderedEventList
    event_groups.o(i.vEventGroupDelete) refers to heap_4.o(i.vPortFree) for vPortFree
    event_groups.o(i.vEventGroupDelete) refers to tasks.o(i.xTaskResumeAll) for xTaskResumeAll
    event_groups.o(i.vEventGroupSetBitsCallback) refers to event_groups.o(i.xEventGroupSetBits) for xEventGroupSetBits
    event_groups.o(i.xEventGroupClearBits) refers to port.o(i.vPortEnterCritical) for vPortEnterCritical
    event_groups.o(i.xEventGroupClearBits) refers to port.o(i.vPortExitCritical) for vPortExitCritical
    event_groups.o(i.xEventGroupClearBitsFromISR) refers to timers.o(i.xTimerPendFunctionCallFromISR) for xTimerPendFunctionCallFromISR
    event_groups.o(i.xEventGroupClearBitsFromISR) refers to event_groups.o(i.vEventGroupClearBitsCallback) for vEventGroupClearBitsCallback
    event_groups.o(i.xEventGroupCreate) refers to heap_4.o(i.pvPortMalloc) for pvPortMalloc
    event_groups.o(i.xEventGroupCreate) refers to list.o(i.vListInitialise) for vListInitialise
    event_groups.o(i.xEventGroupCreateStatic) refers to list.o(i.vListInitialise) for vListInitialise
    event_groups.o(i.xEventGroupGetBitsFromISR) refers to port.o(.emb_text) for ulSetInterruptMaskFromISR
    event_groups.o(i.xEventGroupSetBits) refers to tasks.o(i.vTaskSuspendAll) for vTaskSuspendAll
    event_groups.o(i.xEventGroupSetBits) refers to tasks.o(i.vTaskRemoveFromUnorderedEventList) for vTaskRemoveFromUnorderedEventList
    event_groups.o(i.xEventGroupSetBits) refers to tasks.o(i.xTaskResumeAll) for xTaskResumeAll
    event_groups.o(i.xEventGroupSetBitsFromISR) refers to timers.o(i.xTimerPendFunctionCallFromISR) for xTimerPendFunctionCallFromISR
    event_groups.o(i.xEventGroupSetBitsFromISR) refers to event_groups.o(i.vEventGroupSetBitsCallback) for vEventGroupSetBitsCallback
    event_groups.o(i.xEventGroupSync) refers to tasks.o(i.xTaskGetSchedulerState) for xTaskGetSchedulerState
    event_groups.o(i.xEventGroupSync) refers to tasks.o(i.vTaskSuspendAll) for vTaskSuspendAll
    event_groups.o(i.xEventGroupSync) refers to event_groups.o(i.xEventGroupSetBits) for xEventGroupSetBits
    event_groups.o(i.xEventGroupSync) refers to tasks.o(i.vTaskPlaceOnUnorderedEventList) for vTaskPlaceOnUnorderedEventList
    event_groups.o(i.xEventGroupSync) refers to tasks.o(i.xTaskResumeAll) for xTaskResumeAll
    event_groups.o(i.xEventGroupSync) refers to port.o(i.vPortYield) for vPortYield
    event_groups.o(i.xEventGroupSync) refers to tasks.o(i.uxTaskResetEventItemValue) for uxTaskResetEventItemValue
    event_groups.o(i.xEventGroupSync) refers to port.o(i.vPortEnterCritical) for vPortEnterCritical
    event_groups.o(i.xEventGroupSync) refers to port.o(i.vPortExitCritical) for vPortExitCritical
    event_groups.o(i.xEventGroupWaitBits) refers to tasks.o(i.xTaskGetSchedulerState) for xTaskGetSchedulerState
    event_groups.o(i.xEventGroupWaitBits) refers to tasks.o(i.vTaskSuspendAll) for vTaskSuspendAll
    event_groups.o(i.xEventGroupWaitBits) refers to event_groups.o(i.prvTestWaitCondition) for prvTestWaitCondition
    event_groups.o(i.xEventGroupWaitBits) refers to tasks.o(i.vTaskPlaceOnUnorderedEventList) for vTaskPlaceOnUnorderedEventList
    event_groups.o(i.xEventGroupWaitBits) refers to tasks.o(i.xTaskResumeAll) for xTaskResumeAll
    event_groups.o(i.xEventGroupWaitBits) refers to port.o(i.vPortYield) for vPortYield
    event_groups.o(i.xEventGroupWaitBits) refers to tasks.o(i.uxTaskResetEventItemValue) for uxTaskResetEventItemValue
    event_groups.o(i.xEventGroupWaitBits) refers to port.o(i.vPortEnterCritical) for vPortEnterCritical
    event_groups.o(i.xEventGroupWaitBits) refers to port.o(i.vPortExitCritical) for vPortExitCritical
    heap_4.o(i.prvHeapInit) refers to heap_4.o(.bss) for .bss
    heap_4.o(i.prvHeapInit) refers to heap_4.o(.data) for .data
    heap_4.o(i.prvInsertBlockIntoFreeList) refers to heap_4.o(.data) for .data
    heap_4.o(i.pvPortMalloc) refers to tasks.o(i.vTaskSuspendAll) for vTaskSuspendAll
    heap_4.o(i.pvPortMalloc) refers to heap_4.o(i.prvHeapInit) for prvHeapInit
    heap_4.o(i.pvPortMalloc) refers to heap_4.o(i.prvInsertBlockIntoFreeList) for prvInsertBlockIntoFreeList
    heap_4.o(i.pvPortMalloc) refers to tasks.o(i.xTaskResumeAll) for xTaskResumeAll
    heap_4.o(i.pvPortMalloc) refers to heap_4.o(.data) for .data
    heap_4.o(i.vPortFree) refers to tasks.o(i.vTaskSuspendAll) for vTaskSuspendAll
    heap_4.o(i.vPortFree) refers to heap_4.o(i.prvInsertBlockIntoFreeList) for prvInsertBlockIntoFreeList
    heap_4.o(i.vPortFree) refers to tasks.o(i.xTaskResumeAll) for xTaskResumeAll
    heap_4.o(i.vPortFree) refers to heap_4.o(.data) for .data
    heap_4.o(i.vPortGetHeapStats) refers to tasks.o(i.vTaskSuspendAll) for vTaskSuspendAll
    heap_4.o(i.vPortGetHeapStats) refers to tasks.o(i.xTaskResumeAll) for xTaskResumeAll
    heap_4.o(i.vPortGetHeapStats) refers to port.o(i.vPortEnterCritical) for vPortEnterCritical
    heap_4.o(i.vPortGetHeapStats) refers to port.o(i.vPortExitCritical) for vPortExitCritical
    heap_4.o(i.vPortGetHeapStats) refers to heap_4.o(.data) for .data
    heap_4.o(i.xPortGetFreeHeapSize) refers to heap_4.o(.data) for .data
    heap_4.o(i.xPortGetMinimumEverFreeHeapSize) refers to heap_4.o(.data) for .data
    port.o(.emb_text) refers to tasks.o(.data) for pxCurrentTCB
    port.o(.emb_text) refers to tasks.o(i.vTaskSwitchContext) for vTaskSwitchContext
    port.o(i.prvTaskExitError) refers to port.o(.data) for .data
    port.o(i.pxPortInitialiseStack) refers to port.o(i.prvTaskExitError) for prvTaskExitError
    port.o(i.vPortEndScheduler) refers to port.o(.data) for .data
    port.o(i.vPortEnterCritical) refers to port.o(.data) for .data
    port.o(i.vPortExitCritical) refers to port.o(.data) for .data
    port.o(i.vPortSetupTimerInterrupt) refers to aeabi_sdiv.o(.text) for __aeabi_uidivmod
    port.o(i.vPortSetupTimerInterrupt) refers to system_saml21g18b.o(.data) for SystemCoreClock
    port.o(i.xPortStartScheduler) refers to port.o(i.vPortSetupTimerInterrupt) for vPortSetupTimerInterrupt
    port.o(i.xPortStartScheduler) refers to port.o(.emb_text) for __asm___6_port_c_39a90d8d__prvPortStartFirstTask
    port.o(i.xPortStartScheduler) refers to port.o(.data) for .data
    port.o(i.xPortSysTickHandler) refers to port.o(.emb_text) for ulSetInterruptMaskFromISR
    port.o(i.xPortSysTickHandler) refers to tasks.o(i.xTaskIncrementTick) for xTaskIncrementTick
    queue.o(i.prvCopyDataFromQueue) refers to rt_memcpy.o(.text) for __aeabi_memcpy
    queue.o(i.prvCopyDataToQueue) refers to rt_memcpy.o(.text) for __aeabi_memcpy
    queue.o(i.prvCopyDataToQueue) refers to tasks.o(i.xTaskPriorityDisinherit) for xTaskPriorityDisinherit
    queue.o(i.prvInitialiseMutex) refers to queue.o(i.xQueueGenericSend) for xQueueGenericSend
    queue.o(i.prvInitialiseNewQueue) refers to queue.o(i.xQueueGenericReset) for xQueueGenericReset
    queue.o(i.prvIsQueueEmpty) refers to port.o(i.vPortEnterCritical) for vPortEnterCritical
    queue.o(i.prvIsQueueEmpty) refers to port.o(i.vPortExitCritical) for vPortExitCritical
    queue.o(i.prvIsQueueFull) refers to port.o(i.vPortEnterCritical) for vPortEnterCritical
    queue.o(i.prvIsQueueFull) refers to port.o(i.vPortExitCritical) for vPortExitCritical
    queue.o(i.prvUnlockQueue) refers to port.o(i.vPortEnterCritical) for vPortEnterCritical
    queue.o(i.prvUnlockQueue) refers to tasks.o(i.xTaskRemoveFromEventList) for xTaskRemoveFromEventList
    queue.o(i.prvUnlockQueue) refers to tasks.o(i.vTaskMissedYield) for vTaskMissedYield
    queue.o(i.prvUnlockQueue) refers to port.o(i.vPortExitCritical) for vPortExitCritical
    queue.o(i.uxQueueMessagesWaiting) refers to port.o(i.vPortEnterCritical) for vPortEnterCritical
    queue.o(i.uxQueueMessagesWaiting) refers to port.o(i.vPortExitCritical) for vPortExitCritical
    queue.o(i.uxQueueSpacesAvailable) refers to port.o(i.vPortEnterCritical) for vPortEnterCritical
    queue.o(i.uxQueueSpacesAvailable) refers to port.o(i.vPortExitCritical) for vPortExitCritical
    queue.o(i.vQueueDelete) refers to heap_4.o(i.vPortFree) for vPortFree
    queue.o(i.vQueueWaitForMessageRestricted) refers to port.o(i.vPortEnterCritical) for vPortEnterCritical
    queue.o(i.vQueueWaitForMessageRestricted) refers to port.o(i.vPortExitCritical) for vPortExitCritical
    queue.o(i.vQueueWaitForMessageRestricted) refers to tasks.o(i.vTaskPlaceOnEventListRestricted) for vTaskPlaceOnEventListRestricted
    queue.o(i.vQueueWaitForMessageRestricted) refers to queue.o(i.prvUnlockQueue) for prvUnlockQueue
    queue.o(i.xQueueCreateCountingSemaphore) refers to queue.o(i.xQueueGenericCreate) for xQueueGenericCreate
    queue.o(i.xQueueCreateCountingSemaphoreStatic) refers to queue.o(i.xQueueGenericCreateStatic) for xQueueGenericCreateStatic
    queue.o(i.xQueueCreateMutex) refers to queue.o(i.xQueueGenericCreate) for xQueueGenericCreate
    queue.o(i.xQueueCreateMutex) refers to queue.o(i.prvInitialiseMutex) for prvInitialiseMutex
    queue.o(i.xQueueCreateMutexStatic) refers to queue.o(i.xQueueGenericCreateStatic) for xQueueGenericCreateStatic
    queue.o(i.xQueueCreateMutexStatic) refers to queue.o(i.prvInitialiseMutex) for prvInitialiseMutex
    queue.o(i.xQueueGenericCreate) refers to aeabi_sdiv.o(.text) for __aeabi_uidivmod
    queue.o(i.xQueueGenericCreate) refers to heap_4.o(i.pvPortMalloc) for pvPortMalloc
    queue.o(i.xQueueGenericCreate) refers to queue.o(i.prvInitialiseNewQueue) for prvInitialiseNewQueue
    queue.o(i.xQueueGenericCreateStatic) refers to queue.o(i.prvInitialiseNewQueue) for prvInitialiseNewQueue
    queue.o(i.xQueueGenericReset) refers to aeabi_sdiv.o(.text) for __aeabi_uidivmod
    queue.o(i.xQueueGenericReset) refers to port.o(i.vPortEnterCritical) for vPortEnterCritical
    queue.o(i.xQueueGenericReset) refers to list.o(i.vListInitialise) for vListInitialise
    queue.o(i.xQueueGenericReset) refers to port.o(i.vPortExitCritical) for vPortExitCritical
    queue.o(i.xQueueGenericReset) refers to tasks.o(i.xTaskRemoveFromEventList) for xTaskRemoveFromEventList
    queue.o(i.xQueueGenericReset) refers to port.o(i.vPortYield) for vPortYield
    queue.o(i.xQueueGenericSend) refers to tasks.o(i.xTaskGetSchedulerState) for xTaskGetSchedulerState
    queue.o(i.xQueueGenericSend) refers to port.o(i.vPortEnterCritical) for vPortEnterCritical
    queue.o(i.xQueueGenericSend) refers to queue.o(i.prvCopyDataToQueue) for prvCopyDataToQueue
    queue.o(i.xQueueGenericSend) refers to tasks.o(i.xTaskRemoveFromEventList) for xTaskRemoveFromEventList
    queue.o(i.xQueueGenericSend) refers to port.o(i.vPortYield) for vPortYield
    queue.o(i.xQueueGenericSend) refers to port.o(i.vPortExitCritical) for vPortExitCritical
    queue.o(i.xQueueGenericSend) refers to tasks.o(i.vTaskInternalSetTimeOutState) for vTaskInternalSetTimeOutState
    queue.o(i.xQueueGenericSend) refers to tasks.o(i.vTaskSuspendAll) for vTaskSuspendAll
    queue.o(i.xQueueGenericSend) refers to tasks.o(i.xTaskCheckForTimeOut) for xTaskCheckForTimeOut
    queue.o(i.xQueueGenericSend) refers to queue.o(i.prvUnlockQueue) for prvUnlockQueue
    queue.o(i.xQueueGenericSend) refers to tasks.o(i.xTaskResumeAll) for xTaskResumeAll
    queue.o(i.xQueueGenericSend) refers to queue.o(i.prvIsQueueFull) for prvIsQueueFull
    queue.o(i.xQueueGenericSend) refers to tasks.o(i.vTaskPlaceOnEventList) for vTaskPlaceOnEventList
    queue.o(i.xQueueGenericSendFromISR) refers to port.o(.emb_text) for ulSetInterruptMaskFromISR
    queue.o(i.xQueueGenericSendFromISR) refers to queue.o(i.prvCopyDataToQueue) for prvCopyDataToQueue
    queue.o(i.xQueueGenericSendFromISR) refers to tasks.o(i.xTaskRemoveFromEventList) for xTaskRemoveFromEventList
    queue.o(i.xQueueGetMutexHolder) refers to port.o(i.vPortEnterCritical) for vPortEnterCritical
    queue.o(i.xQueueGetMutexHolder) refers to port.o(i.vPortExitCritical) for vPortExitCritical
    queue.o(i.xQueueGiveFromISR) refers to port.o(.emb_text) for ulSetInterruptMaskFromISR
    queue.o(i.xQueueGiveFromISR) refers to tasks.o(i.xTaskRemoveFromEventList) for xTaskRemoveFromEventList
    queue.o(i.xQueueGiveMutexRecursive) refers to tasks.o(i.xTaskGetCurrentTaskHandle) for xTaskGetCurrentTaskHandle
    queue.o(i.xQueueGiveMutexRecursive) refers to queue.o(i.xQueueGenericSend) for xQueueGenericSend
    queue.o(i.xQueuePeek) refers to tasks.o(i.xTaskGetSchedulerState) for xTaskGetSchedulerState
    queue.o(i.xQueuePeek) refers to port.o(i.vPortEnterCritical) for vPortEnterCritical
    queue.o(i.xQueuePeek) refers to queue.o(i.prvCopyDataFromQueue) for prvCopyDataFromQueue
    queue.o(i.xQueuePeek) refers to tasks.o(i.xTaskRemoveFromEventList) for xTaskRemoveFromEventList
    queue.o(i.xQueuePeek) refers to port.o(i.vPortYield) for vPortYield
    queue.o(i.xQueuePeek) refers to port.o(i.vPortExitCritical) for vPortExitCritical
    queue.o(i.xQueuePeek) refers to tasks.o(i.vTaskInternalSetTimeOutState) for vTaskInternalSetTimeOutState
    queue.o(i.xQueuePeek) refers to tasks.o(i.vTaskSuspendAll) for vTaskSuspendAll
    queue.o(i.xQueuePeek) refers to tasks.o(i.xTaskCheckForTimeOut) for xTaskCheckForTimeOut
    queue.o(i.xQueuePeek) refers to queue.o(i.prvUnlockQueue) for prvUnlockQueue
    queue.o(i.xQueuePeek) refers to tasks.o(i.xTaskResumeAll) for xTaskResumeAll
    queue.o(i.xQueuePeek) refers to queue.o(i.prvIsQueueEmpty) for prvIsQueueEmpty
    queue.o(i.xQueuePeek) refers to tasks.o(i.vTaskPlaceOnEventList) for vTaskPlaceOnEventList
    queue.o(i.xQueuePeekFromISR) refers to port.o(.emb_text) for ulSetInterruptMaskFromISR
    queue.o(i.xQueuePeekFromISR) refers to queue.o(i.prvCopyDataFromQueue) for prvCopyDataFromQueue
    queue.o(i.xQueueReceive) refers to tasks.o(i.xTaskGetSchedulerState) for xTaskGetSchedulerState
    queue.o(i.xQueueReceive) refers to port.o(i.vPortEnterCritical) for vPortEnterCritical
    queue.o(i.xQueueReceive) refers to queue.o(i.prvCopyDataFromQueue) for prvCopyDataFromQueue
    queue.o(i.xQueueReceive) refers to tasks.o(i.xTaskRemoveFromEventList) for xTaskRemoveFromEventList
    queue.o(i.xQueueReceive) refers to port.o(i.vPortYield) for vPortYield
    queue.o(i.xQueueReceive) refers to port.o(i.vPortExitCritical) for vPortExitCritical
    queue.o(i.xQueueReceive) refers to tasks.o(i.vTaskInternalSetTimeOutState) for vTaskInternalSetTimeOutState
    queue.o(i.xQueueReceive) refers to tasks.o(i.vTaskSuspendAll) for vTaskSuspendAll
    queue.o(i.xQueueReceive) refers to tasks.o(i.xTaskCheckForTimeOut) for xTaskCheckForTimeOut
    queue.o(i.xQueueReceive) refers to queue.o(i.prvUnlockQueue) for prvUnlockQueue
    queue.o(i.xQueueReceive) refers to tasks.o(i.xTaskResumeAll) for xTaskResumeAll
    queue.o(i.xQueueReceive) refers to queue.o(i.prvIsQueueEmpty) for prvIsQueueEmpty
    queue.o(i.xQueueReceive) refers to tasks.o(i.vTaskPlaceOnEventList) for vTaskPlaceOnEventList
    queue.o(i.xQueueReceiveFromISR) refers to port.o(.emb_text) for ulSetInterruptMaskFromISR
    queue.o(i.xQueueReceiveFromISR) refers to queue.o(i.prvCopyDataFromQueue) for prvCopyDataFromQueue
    queue.o(i.xQueueReceiveFromISR) refers to tasks.o(i.xTaskRemoveFromEventList) for xTaskRemoveFromEventList
    queue.o(i.xQueueSemaphoreTake) refers to tasks.o(i.xTaskGetSchedulerState) for xTaskGetSchedulerState
    queue.o(i.xQueueSemaphoreTake) refers to port.o(i.vPortEnterCritical) for vPortEnterCritical
    queue.o(i.xQueueSemaphoreTake) refers to tasks.o(i.pvTaskIncrementMutexHeldCount) for pvTaskIncrementMutexHeldCount
    queue.o(i.xQueueSemaphoreTake) refers to tasks.o(i.xTaskRemoveFromEventList) for xTaskRemoveFromEventList
    queue.o(i.xQueueSemaphoreTake) refers to port.o(i.vPortYield) for vPortYield
    queue.o(i.xQueueSemaphoreTake) refers to port.o(i.vPortExitCritical) for vPortExitCritical
    queue.o(i.xQueueSemaphoreTake) refers to tasks.o(i.vTaskInternalSetTimeOutState) for vTaskInternalSetTimeOutState
    queue.o(i.xQueueSemaphoreTake) refers to tasks.o(i.vTaskSuspendAll) for vTaskSuspendAll
    queue.o(i.xQueueSemaphoreTake) refers to tasks.o(i.xTaskCheckForTimeOut) for xTaskCheckForTimeOut
    queue.o(i.xQueueSemaphoreTake) refers to queue.o(i.prvUnlockQueue) for prvUnlockQueue
    queue.o(i.xQueueSemaphoreTake) refers to tasks.o(i.xTaskResumeAll) for xTaskResumeAll
    queue.o(i.xQueueSemaphoreTake) refers to queue.o(i.prvIsQueueEmpty) for prvIsQueueEmpty
    queue.o(i.xQueueSemaphoreTake) refers to queue.o(i.prvGetDisinheritPriorityAfterTimeout) for prvGetDisinheritPriorityAfterTimeout
    queue.o(i.xQueueSemaphoreTake) refers to tasks.o(i.vTaskPriorityDisinheritAfterTimeout) for vTaskPriorityDisinheritAfterTimeout
    queue.o(i.xQueueSemaphoreTake) refers to tasks.o(i.xTaskPriorityInherit) for xTaskPriorityInherit
    queue.o(i.xQueueSemaphoreTake) refers to tasks.o(i.vTaskPlaceOnEventList) for vTaskPlaceOnEventList
    queue.o(i.xQueueTakeMutexRecursive) refers to tasks.o(i.xTaskGetCurrentTaskHandle) for xTaskGetCurrentTaskHandle
    queue.o(i.xQueueTakeMutexRecursive) refers to queue.o(i.xQueueSemaphoreTake) for xQueueSemaphoreTake
    stream_buffer.o(i.prvInitialiseNewStreamBuffer) refers to memset.o(.text) for memset
    stream_buffer.o(i.prvInitialiseNewStreamBuffer) refers to rt_memclr.o(.text) for __aeabi_memclr4
    stream_buffer.o(i.prvReadBytesFromBuffer) refers to rt_memcpy.o(.text) for __aeabi_memcpy
    stream_buffer.o(i.prvReadMessageFromBuffer) refers to stream_buffer.o(i.prvReadBytesFromBuffer) for prvReadBytesFromBuffer
    stream_buffer.o(i.prvWriteBytesToBuffer) refers to rt_memcpy.o(.text) for __aeabi_memcpy
    stream_buffer.o(i.prvWriteMessageToBuffer) refers to stream_buffer.o(i.prvWriteBytesToBuffer) for prvWriteBytesToBuffer
    stream_buffer.o(i.vStreamBufferDelete) refers to heap_4.o(i.vPortFree) for vPortFree
    stream_buffer.o(i.vStreamBufferDelete) refers to rt_memclr.o(.text) for __aeabi_memclr4
    stream_buffer.o(i.xStreamBufferBytesAvailable) refers to stream_buffer.o(i.prvBytesInBuffer) for prvBytesInBuffer
    stream_buffer.o(i.xStreamBufferGenericCreate) refers to heap_4.o(i.pvPortMalloc) for pvPortMalloc
    stream_buffer.o(i.xStreamBufferGenericCreate) refers to stream_buffer.o(i.prvInitialiseNewStreamBuffer) for prvInitialiseNewStreamBuffer
    stream_buffer.o(i.xStreamBufferGenericCreateStatic) refers to stream_buffer.o(i.prvInitialiseNewStreamBuffer) for prvInitialiseNewStreamBuffer
    stream_buffer.o(i.xStreamBufferIsFull) refers to stream_buffer.o(i.xStreamBufferSpacesAvailable) for xStreamBufferSpacesAvailable
    stream_buffer.o(i.xStreamBufferNextMessageLengthBytes) refers to stream_buffer.o(i.prvBytesInBuffer) for prvBytesInBuffer
    stream_buffer.o(i.xStreamBufferNextMessageLengthBytes) refers to stream_buffer.o(i.prvReadBytesFromBuffer) for prvReadBytesFromBuffer
    stream_buffer.o(i.xStreamBufferReceive) refers to port.o(i.vPortEnterCritical) for vPortEnterCritical
    stream_buffer.o(i.xStreamBufferReceive) refers to stream_buffer.o(i.prvBytesInBuffer) for prvBytesInBuffer
    stream_buffer.o(i.xStreamBufferReceive) refers to tasks.o(i.xTaskGenericNotifyStateClear) for xTaskGenericNotifyStateClear
    stream_buffer.o(i.xStreamBufferReceive) refers to tasks.o(i.xTaskGetCurrentTaskHandle) for xTaskGetCurrentTaskHandle
    stream_buffer.o(i.xStreamBufferReceive) refers to port.o(i.vPortExitCritical) for vPortExitCritical
    stream_buffer.o(i.xStreamBufferReceive) refers to tasks.o(i.xTaskGenericNotifyWait) for xTaskGenericNotifyWait
    stream_buffer.o(i.xStreamBufferReceive) refers to stream_buffer.o(i.prvReadMessageFromBuffer) for prvReadMessageFromBuffer
    stream_buffer.o(i.xStreamBufferReceive) refers to tasks.o(i.vTaskSuspendAll) for vTaskSuspendAll
    stream_buffer.o(i.xStreamBufferReceive) refers to tasks.o(i.xTaskGenericNotify) for xTaskGenericNotify
    stream_buffer.o(i.xStreamBufferReceive) refers to tasks.o(i.xTaskResumeAll) for xTaskResumeAll
    stream_buffer.o(i.xStreamBufferReceiveCompletedFromISR) refers to port.o(.emb_text) for ulSetInterruptMaskFromISR
    stream_buffer.o(i.xStreamBufferReceiveCompletedFromISR) refers to tasks.o(i.xTaskGenericNotifyFromISR) for xTaskGenericNotifyFromISR
    stream_buffer.o(i.xStreamBufferReceiveFromISR) refers to stream_buffer.o(i.prvBytesInBuffer) for prvBytesInBuffer
    stream_buffer.o(i.xStreamBufferReceiveFromISR) refers to stream_buffer.o(i.prvReadMessageFromBuffer) for prvReadMessageFromBuffer
    stream_buffer.o(i.xStreamBufferReceiveFromISR) refers to port.o(.emb_text) for ulSetInterruptMaskFromISR
    stream_buffer.o(i.xStreamBufferReceiveFromISR) refers to tasks.o(i.xTaskGenericNotifyFromISR) for xTaskGenericNotifyFromISR
    stream_buffer.o(i.xStreamBufferReset) refers to port.o(i.vPortEnterCritical) for vPortEnterCritical
    stream_buffer.o(i.xStreamBufferReset) refers to stream_buffer.o(i.prvInitialiseNewStreamBuffer) for prvInitialiseNewStreamBuffer
    stream_buffer.o(i.xStreamBufferReset) refers to port.o(i.vPortExitCritical) for vPortExitCritical
    stream_buffer.o(i.xStreamBufferSend) refers to tasks.o(i.vTaskSetTimeOutState) for vTaskSetTimeOutState
    stream_buffer.o(i.xStreamBufferSend) refers to port.o(i.vPortEnterCritical) for vPortEnterCritical
    stream_buffer.o(i.xStreamBufferSend) refers to stream_buffer.o(i.xStreamBufferSpacesAvailable) for xStreamBufferSpacesAvailable
    stream_buffer.o(i.xStreamBufferSend) refers to tasks.o(i.xTaskGenericNotifyStateClear) for xTaskGenericNotifyStateClear
    stream_buffer.o(i.xStreamBufferSend) refers to tasks.o(i.xTaskGetCurrentTaskHandle) for xTaskGetCurrentTaskHandle
    stream_buffer.o(i.xStreamBufferSend) refers to port.o(i.vPortExitCritical) for vPortExitCritical
    stream_buffer.o(i.xStreamBufferSend) refers to tasks.o(i.xTaskGenericNotifyWait) for xTaskGenericNotifyWait
    stream_buffer.o(i.xStreamBufferSend) refers to tasks.o(i.xTaskCheckForTimeOut) for xTaskCheckForTimeOut
    stream_buffer.o(i.xStreamBufferSend) refers to stream_buffer.o(i.prvWriteMessageToBuffer) for prvWriteMessageToBuffer
    stream_buffer.o(i.xStreamBufferSend) refers to stream_buffer.o(i.prvBytesInBuffer) for prvBytesInBuffer
    stream_buffer.o(i.xStreamBufferSend) refers to tasks.o(i.vTaskSuspendAll) for vTaskSuspendAll
    stream_buffer.o(i.xStreamBufferSend) refers to tasks.o(i.xTaskGenericNotify) for xTaskGenericNotify
    stream_buffer.o(i.xStreamBufferSend) refers to tasks.o(i.xTaskResumeAll) for xTaskResumeAll
    stream_buffer.o(i.xStreamBufferSendCompletedFromISR) refers to port.o(.emb_text) for ulSetInterruptMaskFromISR
    stream_buffer.o(i.xStreamBufferSendCompletedFromISR) refers to tasks.o(i.xTaskGenericNotifyFromISR) for xTaskGenericNotifyFromISR
    stream_buffer.o(i.xStreamBufferSendFromISR) refers to stream_buffer.o(i.xStreamBufferSpacesAvailable) for xStreamBufferSpacesAvailable
    stream_buffer.o(i.xStreamBufferSendFromISR) refers to stream_buffer.o(i.prvWriteMessageToBuffer) for prvWriteMessageToBuffer
    stream_buffer.o(i.xStreamBufferSendFromISR) refers to stream_buffer.o(i.prvBytesInBuffer) for prvBytesInBuffer
    stream_buffer.o(i.xStreamBufferSendFromISR) refers to port.o(.emb_text) for ulSetInterruptMaskFromISR
    stream_buffer.o(i.xStreamBufferSendFromISR) refers to tasks.o(i.xTaskGenericNotifyFromISR) for xTaskGenericNotifyFromISR
    tasks.o(i.eTaskGetState) refers to port.o(i.vPortEnterCritical) for vPortEnterCritical
    tasks.o(i.eTaskGetState) refers to port.o(i.vPortExitCritical) for vPortExitCritical
    tasks.o(i.eTaskGetState) refers to tasks.o(.data) for .data
    tasks.o(i.eTaskGetState) refers to tasks.o(.bss) for .bss
    tasks.o(i.pcTaskGetName) refers to tasks.o(.data) for .data
    tasks.o(i.prvAddCurrentTaskToDelayedList) refers to list.o(i.uxListRemove) for uxListRemove
    tasks.o(i.prvAddCurrentTaskToDelayedList) refers to list.o(i.vListInsert) for vListInsert
    tasks.o(i.prvAddCurrentTaskToDelayedList) refers to tasks.o(.data) for .data
    tasks.o(i.prvAddCurrentTaskToDelayedList) refers to tasks.o(.bss) for .bss
    tasks.o(i.prvAddNewTaskToReadyList) refers to port.o(i.vPortEnterCritical) for vPortEnterCritical
    tasks.o(i.prvAddNewTaskToReadyList) refers to tasks.o(i.prvInitialiseTaskLists) for prvInitialiseTaskLists
    tasks.o(i.prvAddNewTaskToReadyList) refers to port.o(i.vPortExitCritical) for vPortExitCritical
    tasks.o(i.prvAddNewTaskToReadyList) refers to port.o(i.vPortYield) for vPortYield
    tasks.o(i.prvAddNewTaskToReadyList) refers to tasks.o(.data) for .data
    tasks.o(i.prvAddNewTaskToReadyList) refers to tasks.o(.bss) for .bss
    tasks.o(i.prvCheckTasksWaitingTermination) refers to port.o(i.vPortEnterCritical) for vPortEnterCritical
    tasks.o(i.prvCheckTasksWaitingTermination) refers to list.o(i.uxListRemove) for uxListRemove
    tasks.o(i.prvCheckTasksWaitingTermination) refers to port.o(i.vPortExitCritical) for vPortExitCritical
    tasks.o(i.prvCheckTasksWaitingTermination) refers to tasks.o(i.prvDeleteTCB) for prvDeleteTCB
    tasks.o(i.prvCheckTasksWaitingTermination) refers to tasks.o(.data) for .data
    tasks.o(i.prvCheckTasksWaitingTermination) refers to tasks.o(.bss) for .bss
    tasks.o(i.prvDeleteTCB) refers to heap_4.o(i.vPortFree) for vPortFree
    tasks.o(i.prvIdleTask) refers to tasks.o(i.prvCheckTasksWaitingTermination) for prvCheckTasksWaitingTermination
    tasks.o(i.prvIdleTask) refers to port.o(i.vPortYield) for vPortYield
    tasks.o(i.prvIdleTask) refers to tasks.o(.bss) for .bss
    tasks.o(i.prvInitialiseNewTask) refers to aeabi_memset.o(.text) for __aeabi_memset
    tasks.o(i.prvInitialiseNewTask) refers to list.o(i.vListInitialiseItem) for vListInitialiseItem
    tasks.o(i.prvInitialiseNewTask) refers to port.o(i.pxPortInitialiseStack) for pxPortInitialiseStack
    tasks.o(i.prvInitialiseTaskLists) refers to list.o(i.vListInitialise) for vListInitialise
    tasks.o(i.prvInitialiseTaskLists) refers to tasks.o(.bss) for .bss
    tasks.o(i.prvInitialiseTaskLists) refers to tasks.o(.data) for .data
    tasks.o(i.prvListTasksWithinSingleList) refers to tasks.o(i.vTaskGetInfo) for vTaskGetInfo
    tasks.o(i.prvResetNextTaskUnblockTime) refers to tasks.o(.data) for .data
    tasks.o(i.prvTaskIsTaskSuspended) refers to tasks.o(.bss) for .bss
    tasks.o(i.pvTaskIncrementMutexHeldCount) refers to tasks.o(.data) for .data
    tasks.o(i.ulTaskGenericNotifyTake) refers to port.o(i.vPortEnterCritical) for vPortEnterCritical
    tasks.o(i.ulTaskGenericNotifyTake) refers to tasks.o(i.prvAddCurrentTaskToDelayedList) for prvAddCurrentTaskToDelayedList
    tasks.o(i.ulTaskGenericNotifyTake) refers to port.o(i.vPortYield) for vPortYield
    tasks.o(i.ulTaskGenericNotifyTake) refers to port.o(i.vPortExitCritical) for vPortExitCritical
    tasks.o(i.ulTaskGenericNotifyTake) refers to tasks.o(.data) for .data
    tasks.o(i.ulTaskGenericNotifyValueClear) refers to port.o(i.vPortEnterCritical) for vPortEnterCritical
    tasks.o(i.ulTaskGenericNotifyValueClear) refers to port.o(i.vPortExitCritical) for vPortExitCritical
    tasks.o(i.ulTaskGenericNotifyValueClear) refers to tasks.o(.data) for .data
    tasks.o(i.uxTaskGetNumberOfTasks) refers to tasks.o(.data) for .data
    tasks.o(i.uxTaskGetStackHighWaterMark) refers to tasks.o(i.prvTaskCheckFreeStackSpace) for prvTaskCheckFreeStackSpace
    tasks.o(i.uxTaskGetStackHighWaterMark) refers to tasks.o(.data) for .data
    tasks.o(i.uxTaskGetSystemState) refers to tasks.o(i.vTaskSuspendAll) for vTaskSuspendAll
    tasks.o(i.uxTaskGetSystemState) refers to tasks.o(i.prvListTasksWithinSingleList) for prvListTasksWithinSingleList
    tasks.o(i.uxTaskGetSystemState) refers to tasks.o(i.xTaskResumeAll) for xTaskResumeAll
    tasks.o(i.uxTaskGetSystemState) refers to tasks.o(.data) for .data
    tasks.o(i.uxTaskGetSystemState) refers to tasks.o(.bss) for .bss
    tasks.o(i.uxTaskPriorityGet) refers to port.o(i.vPortEnterCritical) for vPortEnterCritical
    tasks.o(i.uxTaskPriorityGet) refers to port.o(i.vPortExitCritical) for vPortExitCritical
    tasks.o(i.uxTaskPriorityGet) refers to tasks.o(.data) for .data
    tasks.o(i.uxTaskPriorityGetFromISR) refers to port.o(.emb_text) for ulSetInterruptMaskFromISR
    tasks.o(i.uxTaskPriorityGetFromISR) refers to tasks.o(.data) for .data
    tasks.o(i.uxTaskResetEventItemValue) refers to tasks.o(.data) for .data
    tasks.o(i.vTaskDelay) refers to tasks.o(i.vTaskSuspendAll) for vTaskSuspendAll
    tasks.o(i.vTaskDelay) refers to tasks.o(i.prvAddCurrentTaskToDelayedList) for prvAddCurrentTaskToDelayedList
    tasks.o(i.vTaskDelay) refers to tasks.o(i.xTaskResumeAll) for xTaskResumeAll
    tasks.o(i.vTaskDelay) refers to port.o(i.vPortYield) for vPortYield
    tasks.o(i.vTaskDelay) refers to tasks.o(.data) for .data
    tasks.o(i.vTaskDelete) refers to port.o(i.vPortEnterCritical) for vPortEnterCritical
    tasks.o(i.vTaskDelete) refers to list.o(i.uxListRemove) for uxListRemove
    tasks.o(i.vTaskDelete) refers to list.o(i.vListInsertEnd) for vListInsertEnd
    tasks.o(i.vTaskDelete) refers to tasks.o(i.prvResetNextTaskUnblockTime) for prvResetNextTaskUnblockTime
    tasks.o(i.vTaskDelete) refers to port.o(i.vPortExitCritical) for vPortExitCritical
    tasks.o(i.vTaskDelete) refers to tasks.o(i.prvDeleteTCB) for prvDeleteTCB
    tasks.o(i.vTaskDelete) refers to port.o(i.vPortYield) for vPortYield
    tasks.o(i.vTaskDelete) refers to tasks.o(.data) for .data
    tasks.o(i.vTaskDelete) refers to tasks.o(.bss) for .bss
    tasks.o(i.vTaskEndScheduler) refers to port.o(i.vPortEndScheduler) for vPortEndScheduler
    tasks.o(i.vTaskEndScheduler) refers to tasks.o(.data) for .data
    tasks.o(i.vTaskGenericNotifyGiveFromISR) refers to port.o(.emb_text) for ulSetInterruptMaskFromISR
    tasks.o(i.vTaskGenericNotifyGiveFromISR) refers to tasks.o(.data) for .data
    tasks.o(i.vTaskGenericNotifyGiveFromISR) refers to tasks.o(.bss) for .bss
    tasks.o(i.vTaskGetInfo) refers to tasks.o(i.vTaskSuspendAll) for vTaskSuspendAll
    tasks.o(i.vTaskGetInfo) refers to tasks.o(i.xTaskResumeAll) for xTaskResumeAll
    tasks.o(i.vTaskGetInfo) refers to tasks.o(i.eTaskGetState) for eTaskGetState
    tasks.o(i.vTaskGetInfo) refers to tasks.o(i.prvTaskCheckFreeStackSpace) for prvTaskCheckFreeStackSpace
    tasks.o(i.vTaskGetInfo) refers to tasks.o(.data) for .data
    tasks.o(i.vTaskInternalSetTimeOutState) refers to tasks.o(.data) for .data
    tasks.o(i.vTaskMissedYield) refers to tasks.o(.data) for .data
    tasks.o(i.vTaskPlaceOnEventList) refers to list.o(i.vListInsert) for vListInsert
    tasks.o(i.vTaskPlaceOnEventList) refers to tasks.o(i.prvAddCurrentTaskToDelayedList) for prvAddCurrentTaskToDelayedList
    tasks.o(i.vTaskPlaceOnEventList) refers to tasks.o(.data) for .data
    tasks.o(i.vTaskPlaceOnEventListRestricted) refers to tasks.o(i.prvAddCurrentTaskToDelayedList) for prvAddCurrentTaskToDelayedList
    tasks.o(i.vTaskPlaceOnEventListRestricted) refers to tasks.o(.data) for .data
    tasks.o(i.vTaskPlaceOnUnorderedEventList) refers to tasks.o(i.prvAddCurrentTaskToDelayedList) for prvAddCurrentTaskToDelayedList
    tasks.o(i.vTaskPlaceOnUnorderedEventList) refers to tasks.o(.data) for .data
    tasks.o(i.vTaskPriorityDisinheritAfterTimeout) refers to list.o(i.uxListRemove) for uxListRemove
    tasks.o(i.vTaskPriorityDisinheritAfterTimeout) refers to tasks.o(.data) for .data
    tasks.o(i.vTaskPriorityDisinheritAfterTimeout) refers to tasks.o(.bss) for .bss
    tasks.o(i.vTaskPrioritySet) refers to port.o(i.vPortEnterCritical) for vPortEnterCritical
    tasks.o(i.vTaskPrioritySet) refers to list.o(i.uxListRemove) for uxListRemove
    tasks.o(i.vTaskPrioritySet) refers to port.o(i.vPortYield) for vPortYield
    tasks.o(i.vTaskPrioritySet) refers to port.o(i.vPortExitCritical) for vPortExitCritical
    tasks.o(i.vTaskPrioritySet) refers to tasks.o(.data) for .data
    tasks.o(i.vTaskPrioritySet) refers to tasks.o(.bss) for .bss
    tasks.o(i.vTaskRemoveFromUnorderedEventList) refers to tasks.o(.data) for .data
    tasks.o(i.vTaskRemoveFromUnorderedEventList) refers to tasks.o(.bss) for .bss
    tasks.o(i.vTaskResume) refers to port.o(i.vPortEnterCritical) for vPortEnterCritical
    tasks.o(i.vTaskResume) refers to tasks.o(i.prvTaskIsTaskSuspended) for prvTaskIsTaskSuspended
    tasks.o(i.vTaskResume) refers to list.o(i.uxListRemove) for uxListRemove
    tasks.o(i.vTaskResume) refers to port.o(i.vPortYield) for vPortYield
    tasks.o(i.vTaskResume) refers to port.o(i.vPortExitCritical) for vPortExitCritical
    tasks.o(i.vTaskResume) refers to tasks.o(.data) for .data
    tasks.o(i.vTaskResume) refers to tasks.o(.bss) for .bss
    tasks.o(i.vTaskSetTimeOutState) refers to port.o(i.vPortEnterCritical) for vPortEnterCritical
    tasks.o(i.vTaskSetTimeOutState) refers to port.o(i.vPortExitCritical) for vPortExitCritical
    tasks.o(i.vTaskSetTimeOutState) refers to tasks.o(.data) for .data
    tasks.o(i.vTaskStartScheduler) refers to cmsis_os2.o(i.vApplicationGetIdleTaskMemory) for vApplicationGetIdleTaskMemory
    tasks.o(i.vTaskStartScheduler) refers to tasks.o(i.xTaskCreateStatic) for xTaskCreateStatic
    tasks.o(i.vTaskStartScheduler) refers to timers.o(i.xTimerCreateTimerTask) for xTimerCreateTimerTask
    tasks.o(i.vTaskStartScheduler) refers to port.o(i.xPortStartScheduler) for xPortStartScheduler
    tasks.o(i.vTaskStartScheduler) refers to tasks.o(i.prvIdleTask) for prvIdleTask
    tasks.o(i.vTaskStartScheduler) refers to tasks.o(.data) for .data
    tasks.o(i.vTaskSuspend) refers to port.o(i.vPortEnterCritical) for vPortEnterCritical
    tasks.o(i.vTaskSuspend) refers to list.o(i.uxListRemove) for uxListRemove
    tasks.o(i.vTaskSuspend) refers to list.o(i.vListInsertEnd) for vListInsertEnd
    tasks.o(i.vTaskSuspend) refers to port.o(i.vPortExitCritical) for vPortExitCritical
    tasks.o(i.vTaskSuspend) refers to tasks.o(i.prvResetNextTaskUnblockTime) for prvResetNextTaskUnblockTime
    tasks.o(i.vTaskSuspend) refers to port.o(i.vPortYield) for vPortYield
    tasks.o(i.vTaskSuspend) refers to tasks.o(i.vTaskSwitchContext) for vTaskSwitchContext
    tasks.o(i.vTaskSuspend) refers to tasks.o(.data) for .data
    tasks.o(i.vTaskSuspend) refers to tasks.o(.bss) for .bss
    tasks.o(i.vTaskSuspendAll) refers to tasks.o(.data) for .data
    tasks.o(i.vTaskSwitchContext) refers to cmsis_os2.o(i.vApplicationStackOverflowHook) for vApplicationStackOverflowHook
    tasks.o(i.vTaskSwitchContext) refers to tasks.o(.data) for .data
    tasks.o(i.vTaskSwitchContext) refers to tasks.o(.bss) for .bss
    tasks.o(i.xTaskCatchUpTicks) refers to tasks.o(i.vTaskSuspendAll) for vTaskSuspendAll
    tasks.o(i.xTaskCatchUpTicks) refers to tasks.o(i.xTaskResumeAll) for xTaskResumeAll
    tasks.o(i.xTaskCatchUpTicks) refers to tasks.o(.data) for .data
    tasks.o(i.xTaskCheckForTimeOut) refers to port.o(i.vPortEnterCritical) for vPortEnterCritical
    tasks.o(i.xTaskCheckForTimeOut) refers to tasks.o(i.vTaskInternalSetTimeOutState) for vTaskInternalSetTimeOutState
    tasks.o(i.xTaskCheckForTimeOut) refers to port.o(i.vPortExitCritical) for vPortExitCritical
    tasks.o(i.xTaskCheckForTimeOut) refers to tasks.o(.data) for .data
    tasks.o(i.xTaskCreate) refers to heap_4.o(i.pvPortMalloc) for pvPortMalloc
    tasks.o(i.xTaskCreate) refers to heap_4.o(i.vPortFree) for vPortFree
    tasks.o(i.xTaskCreate) refers to tasks.o(i.prvInitialiseNewTask) for prvInitialiseNewTask
    tasks.o(i.xTaskCreate) refers to tasks.o(i.prvAddNewTaskToReadyList) for prvAddNewTaskToReadyList
    tasks.o(i.xTaskCreateStatic) refers to tasks.o(i.prvInitialiseNewTask) for prvInitialiseNewTask
    tasks.o(i.xTaskCreateStatic) refers to tasks.o(i.prvAddNewTaskToReadyList) for prvAddNewTaskToReadyList
    tasks.o(i.xTaskDelayUntil) refers to tasks.o(i.vTaskSuspendAll) for vTaskSuspendAll
    tasks.o(i.xTaskDelayUntil) refers to tasks.o(i.prvAddCurrentTaskToDelayedList) for prvAddCurrentTaskToDelayedList
    tasks.o(i.xTaskDelayUntil) refers to tasks.o(i.xTaskResumeAll) for xTaskResumeAll
    tasks.o(i.xTaskDelayUntil) refers to port.o(i.vPortYield) for vPortYield
    tasks.o(i.xTaskDelayUntil) refers to tasks.o(.data) for .data
    tasks.o(i.xTaskGenericNotify) refers to port.o(i.vPortEnterCritical) for vPortEnterCritical
    tasks.o(i.xTaskGenericNotify) refers to cmsis_os2.o(i.__ARM_common_switch8) for __ARM_common_switch8
    tasks.o(i.xTaskGenericNotify) refers to port.o(i.vPortYield) for vPortYield
    tasks.o(i.xTaskGenericNotify) refers to port.o(i.vPortExitCritical) for vPortExitCritical
    tasks.o(i.xTaskGenericNotify) refers to tasks.o(.data) for .data
    tasks.o(i.xTaskGenericNotify) refers to tasks.o(.bss) for .bss
    tasks.o(i.xTaskGenericNotifyFromISR) refers to port.o(.emb_text) for ulSetInterruptMaskFromISR
    tasks.o(i.xTaskGenericNotifyFromISR) refers to cmsis_os2.o(i.__ARM_common_switch8) for __ARM_common_switch8
    tasks.o(i.xTaskGenericNotifyFromISR) refers to tasks.o(.data) for .data
    tasks.o(i.xTaskGenericNotifyFromISR) refers to tasks.o(.bss) for .bss
    tasks.o(i.xTaskGenericNotifyStateClear) refers to port.o(i.vPortEnterCritical) for vPortEnterCritical
    tasks.o(i.xTaskGenericNotifyStateClear) refers to port.o(i.vPortExitCritical) for vPortExitCritical
    tasks.o(i.xTaskGenericNotifyStateClear) refers to tasks.o(.data) for .data
    tasks.o(i.xTaskGenericNotifyWait) refers to port.o(i.vPortEnterCritical) for vPortEnterCritical
    tasks.o(i.xTaskGenericNotifyWait) refers to tasks.o(i.prvAddCurrentTaskToDelayedList) for prvAddCurrentTaskToDelayedList
    tasks.o(i.xTaskGenericNotifyWait) refers to port.o(i.vPortYield) for vPortYield
    tasks.o(i.xTaskGenericNotifyWait) refers to port.o(i.vPortExitCritical) for vPortExitCritical
    tasks.o(i.xTaskGenericNotifyWait) refers to tasks.o(.data) for .data
    tasks.o(i.xTaskGetCurrentTaskHandle) refers to tasks.o(.data) for .data
    tasks.o(i.xTaskGetSchedulerState) refers to tasks.o(.data) for .data
    tasks.o(i.xTaskGetTickCount) refers to tasks.o(.data) for .data
    tasks.o(i.xTaskGetTickCountFromISR) refers to tasks.o(.data) for .data
    tasks.o(i.xTaskIncrementTick) refers to tasks.o(i.prvResetNextTaskUnblockTime) for prvResetNextTaskUnblockTime
    tasks.o(i.xTaskIncrementTick) refers to tasks.o(.data) for .data
    tasks.o(i.xTaskIncrementTick) refers to tasks.o(.bss) for .bss
    tasks.o(i.xTaskPriorityDisinherit) refers to list.o(i.uxListRemove) for uxListRemove
    tasks.o(i.xTaskPriorityDisinherit) refers to tasks.o(.data) for .data
    tasks.o(i.xTaskPriorityDisinherit) refers to tasks.o(.bss) for .bss
    tasks.o(i.xTaskPriorityInherit) refers to list.o(i.uxListRemove) for uxListRemove
    tasks.o(i.xTaskPriorityInherit) refers to tasks.o(.data) for .data
    tasks.o(i.xTaskPriorityInherit) refers to tasks.o(.bss) for .bss
    tasks.o(i.xTaskRemoveFromEventList) refers to tasks.o(.data) for .data
    tasks.o(i.xTaskRemoveFromEventList) refers to tasks.o(.bss) for .bss
    tasks.o(i.xTaskResumeAll) refers to port.o(i.vPortEnterCritical) for vPortEnterCritical
    tasks.o(i.xTaskResumeAll) refers to tasks.o(i.prvResetNextTaskUnblockTime) for prvResetNextTaskUnblockTime
    tasks.o(i.xTaskResumeAll) refers to tasks.o(i.xTaskIncrementTick) for xTaskIncrementTick
    tasks.o(i.xTaskResumeAll) refers to port.o(i.vPortYield) for vPortYield
    tasks.o(i.xTaskResumeAll) refers to port.o(i.vPortExitCritical) for vPortExitCritical
    tasks.o(i.xTaskResumeAll) refers to tasks.o(.data) for .data
    tasks.o(i.xTaskResumeAll) refers to tasks.o(.bss) for .bss
    tasks.o(i.xTaskResumeFromISR) refers to port.o(.emb_text) for ulSetInterruptMaskFromISR
    tasks.o(i.xTaskResumeFromISR) refers to tasks.o(i.prvTaskIsTaskSuspended) for prvTaskIsTaskSuspended
    tasks.o(i.xTaskResumeFromISR) refers to list.o(i.vListInsertEnd) for vListInsertEnd
    tasks.o(i.xTaskResumeFromISR) refers to list.o(i.uxListRemove) for uxListRemove
    tasks.o(i.xTaskResumeFromISR) refers to tasks.o(.data) for .data
    tasks.o(i.xTaskResumeFromISR) refers to tasks.o(.bss) for .bss
    timers.o(i.prvCheckForValidListAndQueue) refers to port.o(i.vPortEnterCritical) for vPortEnterCritical
    timers.o(i.prvCheckForValidListAndQueue) refers to list.o(i.vListInitialise) for vListInitialise
    timers.o(i.prvCheckForValidListAndQueue) refers to queue.o(i.xQueueGenericCreateStatic) for xQueueGenericCreateStatic
    timers.o(i.prvCheckForValidListAndQueue) refers to port.o(i.vPortExitCritical) for vPortExitCritical
    timers.o(i.prvCheckForValidListAndQueue) refers to timers.o(.data) for .data
    timers.o(i.prvCheckForValidListAndQueue) refers to timers.o(.bss) for .bss
    timers.o(i.prvGetNextExpireTime) refers to timers.o(.data) for .data
    timers.o(i.prvInitialiseNewTimer) refers to timers.o(i.prvCheckForValidListAndQueue) for prvCheckForValidListAndQueue
    timers.o(i.prvInitialiseNewTimer) refers to list.o(i.vListInitialiseItem) for vListInitialiseItem
    timers.o(i.prvInsertTimerInActiveList) refers to list.o(i.vListInsert) for vListInsert
    timers.o(i.prvInsertTimerInActiveList) refers to timers.o(.data) for .data
    timers.o(i.prvProcessExpiredTimer) refers to list.o(i.uxListRemove) for uxListRemove
    timers.o(i.prvProcessExpiredTimer) refers to timers.o(i.prvReloadTimer) for prvReloadTimer
    timers.o(i.prvProcessExpiredTimer) refers to timers.o(.data) for .data
    timers.o(i.prvProcessReceivedCommands) refers to list.o(i.uxListRemove) for uxListRemove
    timers.o(i.prvProcessReceivedCommands) refers to timers.o(i.prvSampleTimeNow) for prvSampleTimeNow
    timers.o(i.prvProcessReceivedCommands) refers to cmsis_os2.o(i.__ARM_common_switch8) for __ARM_common_switch8
    timers.o(i.prvProcessReceivedCommands) refers to timers.o(i.prvInsertTimerInActiveList) for prvInsertTimerInActiveList
    timers.o(i.prvProcessReceivedCommands) refers to timers.o(i.prvReloadTimer) for prvReloadTimer
    timers.o(i.prvProcessReceivedCommands) refers to heap_4.o(i.vPortFree) for vPortFree
    timers.o(i.prvProcessReceivedCommands) refers to queue.o(i.xQueueReceive) for xQueueReceive
    timers.o(i.prvProcessReceivedCommands) refers to timers.o(.data) for .data
    timers.o(i.prvProcessTimerOrBlockTask) refers to tasks.o(i.vTaskSuspendAll) for vTaskSuspendAll
    timers.o(i.prvProcessTimerOrBlockTask) refers to timers.o(i.prvSampleTimeNow) for prvSampleTimeNow
    timers.o(i.prvProcessTimerOrBlockTask) refers to tasks.o(i.xTaskResumeAll) for xTaskResumeAll
    timers.o(i.prvProcessTimerOrBlockTask) refers to timers.o(i.prvProcessExpiredTimer) for prvProcessExpiredTimer
    timers.o(i.prvProcessTimerOrBlockTask) refers to queue.o(i.vQueueWaitForMessageRestricted) for vQueueWaitForMessageRestricted
    timers.o(i.prvProcessTimerOrBlockTask) refers to port.o(i.vPortYield) for vPortYield
    timers.o(i.prvProcessTimerOrBlockTask) refers to timers.o(.data) for .data
    timers.o(i.prvReloadTimer) refers to timers.o(i.prvInsertTimerInActiveList) for prvInsertTimerInActiveList
    timers.o(i.prvSampleTimeNow) refers to tasks.o(i.xTaskGetTickCount) for xTaskGetTickCount
    timers.o(i.prvSampleTimeNow) refers to timers.o(i.prvSwitchTimerLists) for prvSwitchTimerLists
    timers.o(i.prvSampleTimeNow) refers to timers.o(.data) for .data
    timers.o(i.prvSwitchTimerLists) refers to timers.o(i.prvProcessExpiredTimer) for prvProcessExpiredTimer
    timers.o(i.prvSwitchTimerLists) refers to timers.o(.data) for .data
    timers.o(i.prvTimerTask) refers to timers.o(i.prvGetNextExpireTime) for prvGetNextExpireTime
    timers.o(i.prvTimerTask) refers to timers.o(i.prvProcessTimerOrBlockTask) for prvProcessTimerOrBlockTask
    timers.o(i.prvTimerTask) refers to timers.o(i.prvProcessReceivedCommands) for prvProcessReceivedCommands
    timers.o(i.pvTimerGetTimerID) refers to port.o(i.vPortEnterCritical) for vPortEnterCritical
    timers.o(i.pvTimerGetTimerID) refers to port.o(i.vPortExitCritical) for vPortExitCritical
    timers.o(i.uxTimerGetReloadMode) refers to port.o(i.vPortEnterCritical) for vPortEnterCritical
    timers.o(i.uxTimerGetReloadMode) refers to port.o(i.vPortExitCritical) for vPortExitCritical
    timers.o(i.vTimerSetReloadMode) refers to port.o(i.vPortEnterCritical) for vPortEnterCritical
    timers.o(i.vTimerSetReloadMode) refers to port.o(i.vPortExitCritical) for vPortExitCritical
    timers.o(i.vTimerSetTimerID) refers to port.o(i.vPortEnterCritical) for vPortEnterCritical
    timers.o(i.vTimerSetTimerID) refers to port.o(i.vPortExitCritical) for vPortExitCritical
    timers.o(i.xTimerCreate) refers to heap_4.o(i.pvPortMalloc) for pvPortMalloc
    timers.o(i.xTimerCreate) refers to timers.o(i.prvInitialiseNewTimer) for prvInitialiseNewTimer
    timers.o(i.xTimerCreateStatic) refers to timers.o(i.prvInitialiseNewTimer) for prvInitialiseNewTimer
    timers.o(i.xTimerCreateTimerTask) refers to timers.o(i.prvCheckForValidListAndQueue) for prvCheckForValidListAndQueue
    timers.o(i.xTimerCreateTimerTask) refers to cmsis_os2.o(i.vApplicationGetTimerTaskMemory) for vApplicationGetTimerTaskMemory
    timers.o(i.xTimerCreateTimerTask) refers to tasks.o(i.xTaskCreateStatic) for xTaskCreateStatic
    timers.o(i.xTimerCreateTimerTask) refers to timers.o(.data) for .data
    timers.o(i.xTimerCreateTimerTask) refers to timers.o(i.prvTimerTask) for prvTimerTask
    timers.o(i.xTimerGenericCommand) refers to tasks.o(i.xTaskGetSchedulerState) for xTaskGetSchedulerState
    timers.o(i.xTimerGenericCommand) refers to queue.o(i.xQueueGenericSend) for xQueueGenericSend
    timers.o(i.xTimerGenericCommand) refers to queue.o(i.xQueueGenericSendFromISR) for xQueueGenericSendFromISR
    timers.o(i.xTimerGenericCommand) refers to timers.o(.data) for .data
    timers.o(i.xTimerGetTimerDaemonTaskHandle) refers to timers.o(.data) for .data
    timers.o(i.xTimerIsTimerActive) refers to port.o(i.vPortEnterCritical) for vPortEnterCritical
    timers.o(i.xTimerIsTimerActive) refers to port.o(i.vPortExitCritical) for vPortExitCritical
    timers.o(i.xTimerPendFunctionCall) refers to queue.o(i.xQueueGenericSend) for xQueueGenericSend
    timers.o(i.xTimerPendFunctionCall) refers to timers.o(.data) for .data
    timers.o(i.xTimerPendFunctionCallFromISR) refers to queue.o(i.xQueueGenericSendFromISR) for xQueueGenericSendFromISR
    timers.o(i.xTimerPendFunctionCallFromISR) refers to timers.o(.data) for .data
    rt_ctype_table.o(.text) refers to rt_locale_twolibspace.o(.text) for __rt_locale
    rt_ctype_table.o(.text) refers to lc_ctype_c.o(locale$$code) for _get_lc_ctype
    c89vsprintf.o(.text) refers (Special) to _printf_a.o(.ARM.Collect$$_printf_percent$$00000006) for _printf_a
    c89vsprintf.o(.text) refers (Special) to _printf_c.o(.ARM.Collect$$_printf_percent$$00000013) for _printf_c
    c89vsprintf.o(.text) refers (Special) to _printf_charcount.o(.text) for _printf_charcount
    c89vsprintf.o(.text) refers (Special) to _printf_d.o(.ARM.Collect$$_printf_percent$$00000009) for _printf_d
    c89vsprintf.o(.text) refers (Special) to _printf_e.o(.ARM.Collect$$_printf_percent$$00000004) for _printf_e
    c89vsprintf.o(.text) refers (Special) to _printf_f.o(.ARM.Collect$$_printf_percent$$00000003) for _printf_f
    c89vsprintf.o(.text) refers (Special) to printf1.o(x$fpl$printf1) for _printf_fp_dec
    c89vsprintf.o(.text) refers (Special) to _printf_g.o(.ARM.Collect$$_printf_percent$$00000005) for _printf_g
    c89vsprintf.o(.text) refers (Special) to _printf_i.o(.ARM.Collect$$_printf_percent$$00000008) for _printf_i
    c89vsprintf.o(.text) refers (Special) to _printf_dec.o(.text) for _printf_int_dec
    c89vsprintf.o(.text) refers (Special) to _printf_l.o(.ARM.Collect$$_printf_percent$$00000012) for _printf_l
    c89vsprintf.o(.text) refers (Special) to _printf_lc.o(.ARM.Collect$$_printf_percent$$00000015) for _printf_lc
    c89vsprintf.o(.text) refers (Special) to _printf_ll.o(.ARM.Collect$$_printf_percent$$00000007) for _printf_ll
    c89vsprintf.o(.text) refers (Special) to _printf_lld.o(.ARM.Collect$$_printf_percent$$0000000E) for _printf_lld
    c89vsprintf.o(.text) refers (Special) to _printf_lli.o(.ARM.Collect$$_printf_percent$$0000000D) for _printf_lli
    c89vsprintf.o(.text) refers (Special) to _printf_llo.o(.ARM.Collect$$_printf_percent$$00000010) for _printf_llo
    c89vsprintf.o(.text) refers (Special) to _printf_llu.o(.ARM.Collect$$_printf_percent$$0000000F) for _printf_llu
    c89vsprintf.o(.text) refers (Special) to _printf_llx.o(.ARM.Collect$$_printf_percent$$00000011) for _printf_llx
    c89vsprintf.o(.text) refers (Special) to _printf_longlong_dec.o(.text) for _printf_longlong_dec
    c89vsprintf.o(.text) refers (Special) to _printf_hex_int_ll_ptr.o(.text) for _printf_longlong_hex
    c89vsprintf.o(.text) refers (Special) to _printf_oct_int_ll.o(.text) for _printf_longlong_oct
    c89vsprintf.o(.text) refers (Special) to _printf_ls.o(.ARM.Collect$$_printf_percent$$00000016) for _printf_ls
    c89vsprintf.o(.text) refers (Special) to _printf_n.o(.ARM.Collect$$_printf_percent$$00000001) for _printf_n
    c89vsprintf.o(.text) refers (Special) to _printf_o.o(.ARM.Collect$$_printf_percent$$0000000B) for _printf_o
    c89vsprintf.o(.text) refers (Special) to _printf_p.o(.ARM.Collect$$_printf_percent$$00000002) for _printf_p
    c89vsprintf.o(.text) refers (Special) to _printf_percent.o(.ARM.Collect$$_printf_percent$$00000000) for _printf_percent
    c89vsprintf.o(.text) refers (Special) to _printf_pad.o(.text) for _printf_post_padding
    c89vsprintf.o(.text) refers (Special) to _printf_s.o(.ARM.Collect$$_printf_percent$$00000014) for _printf_s
    c89vsprintf.o(.text) refers (Special) to _printf_str.o(.text) for _printf_str
    c89vsprintf.o(.text) refers (Special) to _printf_truncate.o(.text) for _printf_truncate_signed
    c89vsprintf.o(.text) refers (Special) to _printf_u.o(.ARM.Collect$$_printf_percent$$0000000A) for _printf_u
    c89vsprintf.o(.text) refers (Special) to _printf_wctomb.o(.text) for _printf_wctomb
    c89vsprintf.o(.text) refers (Special) to _printf_x.o(.ARM.Collect$$_printf_percent$$0000000C) for _printf_x
    c89vsprintf.o(.text) refers to _printf_char_common.o(.text) for _printf_char_common
    c89vsprintf.o(.text) refers to _sputc.o(.text) for _sputc
    __0sscanf.o(.text) refers to scanf_char.o(.text) for __vfscanf_char
    __0sscanf.o(.text) refers to _sgetc.o(.text) for _sgetc
    _scanf_int.o(.text) refers to _chval.o(.text) for _chval
    rt_memcpy.o(.text) refers to rt_memcpy.o(.emb_text) for __aeabi_memcpy4
    memset.o(.text) refers to rt_memclr.o(.text) for _memset
    aeabi_memset.o(.text) refers to rt_memclr.o(.text) for _memset
    __main.o(!!!main) refers to __rtentry.o(.ARM.Collect$$rtentry$$00000000) for __rt_entry
    init_aeabi.o(.emb_text) refers (Special) to libinit2.o(.ARM.Collect$$libinit$$00000031) for __rt_lib_init_cpp_2
    init_aeabi.o(.init_array) refers (Special) to libinit2.o(.ARM.Collect$$libinit$$00000031) for __rt_lib_init_cpp_2
    init_aeabi.o(.init_array) refers to init_aeabi.o(.text) for __cpp_initialize__aeabi_
    init_aeabi.o(.dummy_text) refers (Special) to libinit2.o(.ARM.Collect$$libinit$$00000031) for __rt_lib_init_cpp_2
    init_aeabi.o(.text) refers (Special) to libinit2.o(.ARM.Collect$$libinit$$00000031) for __rt_lib_init_cpp_2
    init_aeabi.o(.ARM.exidx) refers (Special) to libinit2.o(.ARM.Collect$$libinit$$00000031) for __rt_lib_init_cpp_2
    init_aeabi.o(.ARM.exidx) refers to init_aeabi.o(.text) for .text
    __rtentry.o(.ARM.Collect$$rtentry$$00000000) refers (Special) to __rtentry2.o(.ARM.Collect$$rtentry$$0000000A) for __rt_entry_li
    __rtentry.o(.ARM.Collect$$rtentry$$00000000) refers (Special) to __rtentry2.o(.ARM.Collect$$rtentry$$0000000D) for __rt_entry_main
    __rtentry.o(.ARM.Collect$$rtentry$$00000000) refers (Special) to __rtentry2.o(.ARM.Collect$$rtentry$$0000000C) for __rt_entry_postli_1
    __rtentry.o(.ARM.Collect$$rtentry$$00000000) refers (Special) to __rtentry2.o(.ARM.Collect$$rtentry$$00000008) for __rt_entry_postsh_1
    __rtentry.o(.ARM.Collect$$rtentry$$00000000) refers (Special) to __rtentry2.o(.ARM.Collect$$rtentry$$00000002) for __rt_entry_presh_1
    __rtentry.o(.ARM.Collect$$rtentry$$00000000) refers (Special) to __rtentry4.o(.ARM.Collect$$rtentry$$00000004) for __rt_entry_sh
    aeabi_idiv0_sigfpe.o(.text) refers to rt_div0.o(.text) for __rt_div0
    rt_locale.o(.text) refers to rt_locale.o(.bss) for __rt_locale_data
    rt_locale_intlibspace.o(.text) refers to libspace.o(.bss) for __libspace_start
    rt_locale_twolibspace.o(.text) refers to libspace.o(.text) for __user_perproc_libspace
    __printf.o(.text) refers to _printf_percent.o(.ARM.Collect$$_printf_percent$$00000000) for _printf_percent
    _printf_str.o(.text) refers (Special) to _printf_char.o(.text) for _printf_cs_common
    _printf_str.o(.text) refers (Weak) to _printf_pad.o(.text) for _printf_pre_padding
    _printf_str.o(.text) refers (Weak) to _printf_pad.o(.text) for _printf_post_padding
    _printf_dec.o(.text) refers (Weak) to _printf_truncate.o(.text) for _printf_truncate_signed
    _printf_dec.o(.text) refers (Weak) to _printf_truncate.o(.text) for _printf_truncate_unsigned
    _printf_dec.o(.text) refers to rtudiv10.o(.text) for __rt_udiv10
    _printf_dec.o(.text) refers to _printf_intcommon.o(.text) for _printf_int_common
    _printf_char_common.o(.text) refers to __printf_flags_ss_wp.o(.text) for __printf
    _printf_wctomb.o(.text) refers (Special) to _printf_wchar.o(.text) for _printf_lcs_common
    _printf_wctomb.o(.text) refers to _wcrtomb.o(.text) for _wcrtomb
    _printf_wctomb.o(.text) refers (Weak) to _printf_pad.o(.text) for _printf_pre_padding
    _printf_wctomb.o(.text) refers (Weak) to _printf_pad.o(.text) for _printf_post_padding
    _printf_wctomb.o(.text) refers to _printf_wctomb.o(.constdata) for .constdata
    _printf_wctomb.o(.constdata) refers (Special) to _printf_wchar.o(.text) for _printf_lcs_common
    _printf_longlong_dec.o(.text) refers to lludiv10.o(.text) for _ll_udiv10
    _printf_longlong_dec.o(.text) refers to _printf_intcommon.o(.text) for _printf_int_common
    _printf_oct_ll.o(.text) refers to _printf_intcommon.o(.text) for _printf_int_common
    _printf_oct_int.o(.text) refers (Weak) to _printf_truncate.o(.text) for _printf_truncate_unsigned
    _printf_oct_int.o(.text) refers to _printf_intcommon.o(.text) for _printf_int_common
    _printf_oct_int_ll.o(.text) refers to _printf_intcommon.o(.text) for _printf_int_common
    _printf_oct_int_ll.o(.text) refers (Weak) to _printf_truncate.o(.text) for _printf_truncate_unsigned
    _printf_hex_ll.o(.text) refers to _printf_intcommon.o(.text) for _printf_int_common
    _printf_hex_ll.o(.text) refers to _printf_hex_ll.o(.constdata) for .constdata
    _printf_hex_int.o(.text) refers (Weak) to _printf_truncate.o(.text) for _printf_truncate_unsigned
    _printf_hex_int.o(.text) refers to _printf_intcommon.o(.text) for _printf_int_common
    _printf_hex_int.o(.text) refers to _printf_hex_int.o(.constdata) for .constdata
    _printf_hex_int_ll.o(.text) refers to _printf_intcommon.o(.text) for _printf_int_common
    _printf_hex_int_ll.o(.text) refers (Weak) to _printf_truncate.o(.text) for _printf_truncate_unsigned
    _printf_hex_int_ll.o(.text) refers to _printf_hex_int_ll.o(.constdata) for .constdata
    _printf_hex_ptr.o(.text) refers to _printf_intcommon.o(.text) for _printf_int_common
    _printf_hex_ptr.o(.text) refers to _printf_hex_ptr.o(.constdata) for .constdata
    _printf_hex_int_ptr.o(.text) refers to _printf_intcommon.o(.text) for _printf_int_common
    _printf_hex_int_ptr.o(.text) refers (Weak) to _printf_truncate.o(.text) for _printf_truncate_unsigned
    _printf_hex_int_ptr.o(.text) refers to _printf_hex_int_ptr.o(.constdata) for .constdata
    _printf_hex_ll_ptr.o(.text) refers to _printf_intcommon.o(.text) for _printf_int_common
    _printf_hex_ll_ptr.o(.text) refers to _printf_hex_ll_ptr.o(.constdata) for .constdata
    _printf_hex_int_ll_ptr.o(.text) refers to _printf_intcommon.o(.text) for _printf_int_common
    _printf_hex_int_ll_ptr.o(.text) refers (Weak) to _printf_truncate.o(.text) for _printf_truncate_unsigned
    _printf_hex_int_ll_ptr.o(.text) refers to _printf_hex_int_ll_ptr.o(.constdata) for .constdata
    __printf_flags.o(.text) refers to _printf_percent.o(.ARM.Collect$$_printf_percent$$00000000) for _printf_percent
    __printf_flags.o(.text) refers to __printf_flags.o(.constdata) for .constdata
    __printf_ss.o(.text) refers to _printf_percent.o(.ARM.Collect$$_printf_percent$$00000000) for _printf_percent
    __printf_flags_ss.o(.text) refers to _printf_percent.o(.ARM.Collect$$_printf_percent$$00000000) for _printf_percent
    __printf_flags_ss.o(.text) refers to __printf_flags_ss.o(.constdata) for .constdata
    __printf_wp.o(.text) refers to __printf_wp.o(i._is_digit) for _is_digit
    __printf_wp.o(.text) refers to _printf_percent.o(.ARM.Collect$$_printf_percent$$00000000) for _printf_percent
    __printf_flags_wp.o(.text) refers to __printf_wp.o(i._is_digit) for _is_digit
    __printf_flags_wp.o(.text) refers to _printf_percent.o(.ARM.Collect$$_printf_percent$$00000000) for _printf_percent
    __printf_flags_wp.o(.text) refers to __printf_flags_wp.o(.constdata) for .constdata
    __printf_ss_wp.o(.text) refers to __printf_wp.o(i._is_digit) for _is_digit
    __printf_ss_wp.o(.text) refers to _printf_percent.o(.ARM.Collect$$_printf_percent$$00000000) for _printf_percent
    __printf_flags_ss_wp.o(.text) refers to __printf_wp.o(i._is_digit) for _is_digit
    __printf_flags_ss_wp.o(.text) refers to _printf_percent.o(.ARM.Collect$$_printf_percent$$00000000) for _printf_percent
    __printf_flags_ss_wp.o(.text) refers to __printf_flags_ss_wp.o(.constdata) for .constdata
    _printf_c.o(.ARM.Collect$$_printf_percent$$00000013) refers (Weak) to _printf_char.o(.text) for _printf_char
    _printf_s.o(.ARM.Collect$$_printf_percent$$00000014) refers (Weak) to _printf_char.o(.text) for _printf_string
    _printf_n.o(.ARM.Collect$$_printf_percent$$00000001) refers (Weak) to _printf_charcount.o(.text) for _printf_charcount
    _printf_x.o(.ARM.Collect$$_printf_percent$$0000000C) refers (Weak) to _printf_hex_int_ll_ptr.o(.text) for _printf_int_hex
    _printf_p.o(.ARM.Collect$$_printf_percent$$00000002) refers (Weak) to _printf_hex_int_ll_ptr.o(.text) for _printf_hex_ptr
    _printf_o.o(.ARM.Collect$$_printf_percent$$0000000B) refers (Weak) to _printf_oct_int_ll.o(.text) for _printf_int_oct
    _printf_i.o(.ARM.Collect$$_printf_percent$$00000008) refers (Weak) to _printf_dec.o(.text) for _printf_int_dec
    _printf_d.o(.ARM.Collect$$_printf_percent$$00000009) refers (Weak) to _printf_dec.o(.text) for _printf_int_dec
    _printf_u.o(.ARM.Collect$$_printf_percent$$0000000A) refers (Weak) to _printf_dec.o(.text) for _printf_int_dec
    _printf_f.o(.ARM.Collect$$_printf_percent$$00000003) refers (Weak) to printf1.o(x$fpl$printf1) for _printf_fp_dec
    _printf_e.o(.ARM.Collect$$_printf_percent$$00000004) refers (Weak) to printf1.o(x$fpl$printf1) for _printf_fp_dec
    _printf_g.o(.ARM.Collect$$_printf_percent$$00000005) refers (Weak) to printf1.o(x$fpl$printf1) for _printf_fp_dec
    _printf_percent.o(.ARM.Collect$$_printf_percent$$00000000) refers (Special) to _printf_percent_end.o(.ARM.Collect$$_printf_percent$$00000017) for _printf_percent_end
    _printf_lli.o(.ARM.Collect$$_printf_percent$$0000000D) refers (Special) to _printf_ll.o(.ARM.Collect$$_printf_percent$$00000007) for _printf_ll
    _printf_lli.o(.ARM.Collect$$_printf_percent$$0000000D) refers (Weak) to _printf_longlong_dec.o(.text) for _printf_longlong_dec
    _printf_lld.o(.ARM.Collect$$_printf_percent$$0000000E) refers (Special) to _printf_ll.o(.ARM.Collect$$_printf_percent$$00000007) for _printf_ll
    _printf_lld.o(.ARM.Collect$$_printf_percent$$0000000E) refers (Weak) to _printf_longlong_dec.o(.text) for _printf_longlong_dec
    _printf_llu.o(.ARM.Collect$$_printf_percent$$0000000F) refers (Special) to _printf_ll.o(.ARM.Collect$$_printf_percent$$00000007) for _printf_ll
    _printf_llu.o(.ARM.Collect$$_printf_percent$$0000000F) refers (Weak) to _printf_longlong_dec.o(.text) for _printf_longlong_dec
    _printf_lc.o(.ARM.Collect$$_printf_percent$$00000015) refers (Special) to _printf_l.o(.ARM.Collect$$_printf_percent$$00000012) for _printf_l
    _printf_lc.o(.ARM.Collect$$_printf_percent$$00000015) refers (Weak) to _printf_wchar.o(.text) for _printf_wchar
    _printf_ls.o(.ARM.Collect$$_printf_percent$$00000016) refers (Special) to _printf_l.o(.ARM.Collect$$_printf_percent$$00000012) for _printf_l
    _printf_ls.o(.ARM.Collect$$_printf_percent$$00000016) refers (Weak) to _printf_wchar.o(.text) for _printf_wstring
    _printf_llo.o(.ARM.Collect$$_printf_percent$$00000010) refers (Special) to _printf_ll.o(.ARM.Collect$$_printf_percent$$00000007) for _printf_ll
    _printf_llo.o(.ARM.Collect$$_printf_percent$$00000010) refers (Weak) to _printf_oct_int_ll.o(.text) for _printf_ll_oct
    _printf_llx.o(.ARM.Collect$$_printf_percent$$00000011) refers (Special) to _printf_ll.o(.ARM.Collect$$_printf_percent$$00000007) for _printf_ll
    _printf_llx.o(.ARM.Collect$$_printf_percent$$00000011) refers (Weak) to _printf_hex_int_ll_ptr.o(.text) for _printf_ll_hex
    scanf_char.o(.text) refers to _scanf.o(.text) for __vfscanf
    scanf_char.o(.text) refers to isspace.o(.text) for isspace
    lc_ctype_c.o(locale$$data) refers (Special) to libinit2.o(.ARM.Collect$$libinit$$00000012) for __rt_lib_init_lc_ctype_2
    lc_ctype_c.o(locale$$code) refers (Special) to libinit2.o(.ARM.Collect$$libinit$$00000012) for __rt_lib_init_lc_ctype_2
    lc_ctype_c.o(locale$$code) refers to strcmp.o(.text) for strcmp
    lc_ctype_c.o(locale$$code) refers to lc_ctype_c.o(locale$$data) for __lcctype_c_name
    libinit2.o(.ARM.Collect$$libinit$$0000000F) refers (Weak) to rt_locale_twolibspace.o(.text) for __rt_locale
    libinit2.o(.ARM.Collect$$libinit$$00000010) refers to libinit2.o(.ARM.Collect$$libinit$$0000000F) for .ARM.Collect$$libinit$$0000000F
    libinit2.o(.ARM.Collect$$libinit$$00000012) refers to libinit2.o(.ARM.Collect$$libinit$$0000000F) for .ARM.Collect$$libinit$$0000000F
    libinit2.o(.ARM.Collect$$libinit$$00000012) refers (Weak) to lc_ctype_c.o(locale$$code) for _get_lc_ctype
    libinit2.o(.ARM.Collect$$libinit$$00000014) refers to libinit2.o(.ARM.Collect$$libinit$$0000000F) for .ARM.Collect$$libinit$$0000000F
    libinit2.o(.ARM.Collect$$libinit$$00000016) refers to libinit2.o(.ARM.Collect$$libinit$$0000000F) for .ARM.Collect$$libinit$$0000000F
    libinit2.o(.ARM.Collect$$libinit$$00000016) refers (Weak) to lc_numeric_c.o(locale$$code) for _get_lc_numeric
    libinit2.o(.ARM.Collect$$libinit$$00000018) refers to libinit2.o(.ARM.Collect$$libinit$$0000000F) for .ARM.Collect$$libinit$$0000000F
    libinit2.o(.ARM.Collect$$libinit$$00000026) refers to argv_veneer.o(.text) for __ARM_argv_veneer
    libinit2.o(.ARM.Collect$$libinit$$00000027) refers to argv_veneer.o(.text) for __ARM_argv_veneer
    libinit2.o(.ARM.Collect$$libinit$$00000031) refers (Weak) to init_aeabi.o(.text) for __cpp_initialize__aeabi_
    printf1.o(x$fpl$printf1) refers to _printf_fp_dec.o(.text) for _printf_fp_dec_real
    libspace.o(.text) refers to libspace.o(.bss) for __libspace_start
    __rtentry2.o(.ARM.Collect$$rtentry$$00000008) refers to clib_arm.o(i._platform_post_stackheap_init) for _platform_post_stackheap_init
    __rtentry2.o(.ARM.Collect$$rtentry$$0000000A) refers to libinit.o(.ARM.Collect$$libinit$$00000000) for __rt_lib_init
    __rtentry2.o(.ARM.Collect$$rtentry$$0000000B) refers to boardinit3.o(.text) for _platform_post_lib_init
    __rtentry2.o(.ARM.Collect$$rtentry$$0000000D) refers to main.o(i.main) for main
    __rtentry2.o(.ARM.Collect$$rtentry$$0000000D) refers to exit.o(.text) for exit
    __rtentry2.o(.ARM.exidx) refers to __rtentry2.o(.ARM.Collect$$rtentry$$00000001) for .ARM.Collect$$rtentry$$00000001
    __rtentry2.o(.ARM.exidx) refers to __rtentry2.o(.ARM.Collect$$rtentry$$00000008) for .ARM.Collect$$rtentry$$00000008
    __rtentry2.o(.ARM.exidx) refers to __rtentry2.o(.ARM.Collect$$rtentry$$0000000A) for .ARM.Collect$$rtentry$$0000000A
    __rtentry2.o(.ARM.exidx) refers to __rtentry2.o(.ARM.Collect$$rtentry$$0000000B) for .ARM.Collect$$rtentry$$0000000B
    __rtentry2.o(.ARM.exidx) refers to __rtentry2.o(.ARM.Collect$$rtentry$$0000000D) for .ARM.Collect$$rtentry$$0000000D
    __rtentry4.o(.ARM.Collect$$rtentry$$00000004) refers to sys_stackheap_outer.o(.text) for __user_setup_stackheap
    __rtentry4.o(.ARM.exidx) refers to __rtentry4.o(.ARM.Collect$$rtentry$$00000004) for .ARM.Collect$$rtentry$$00000004
    rt_div0.o(.text) refers to defsig_fpe_outer.o(.text) for __rt_SIGFPE
    isspace.o(.text) refers to rt_ctype_table.o(.text) for __rt_ctype_table
    _printf_intcommon.o(.text) refers (Weak) to _printf_pad.o(.text) for _printf_pre_padding
    _printf_intcommon.o(.text) refers (Weak) to _printf_pad.o(.text) for _printf_pre_padding
    _printf_intcommon.o(.text) refers (Weak) to _printf_pad.o(.text) for _printf_post_padding
    _printf_fp_dec.o(.text) refers (Special) to usenofp.o(x$fpl$usenofp) for __I$use$fp
    _printf_fp_dec.o(.text) refers (Special) to lc_numeric_c.o(locale$$code) for _get_lc_numeric
    _printf_fp_dec.o(.text) refers to bigflt0.o(.text) for _btod_etento
    _printf_fp_dec.o(.text) refers to btod.o(.text) for _btod_d2e
    _printf_fp_dec.o(.text) refers to lludiv10.o(.text) for _ll_udiv10
    _printf_fp_dec.o(.text) refers to fpclassify.o(i.__ARM_fpclassify) for __ARM_fpclassify
    _printf_fp_dec.o(.text) refers to _printf_fp_infnan.o(.text) for _printf_fp_infnan
    _printf_fp_dec.o(.text) refers to rtudiv10.o(.text) for __rt_udiv10
    _printf_fp_dec.o(.text) refers (Weak) to _printf_pad.o(.text) for _printf_pre_padding
    _printf_fp_dec.o(.text) refers (Weak) to _printf_pad.o(.text) for _printf_pre_padding
    _printf_fp_dec.o(.text) refers to rt_locale_twolibspace.o(.text) for __rt_locale
    _printf_fp_dec.o(.text) refers (Weak) to _printf_pad.o(.text) for _printf_post_padding
    _printf_char.o(.text) refers (Weak) to _printf_str.o(.text) for _printf_str
    _printf_wchar.o(.text) refers (Weak) to _printf_wctomb.o(.text) for _printf_wctomb
    _scanf.o(.text) refers (Weak) to _scanf_int.o(.text) for _scanf_int
    _scanf.o(.text) refers (Weak) to _scanf_str.o(.text) for _scanf_string
    _wcrtomb.o(.text) refers to rt_ctype_table.o(.text) for __rt_ctype_table
    sys_stackheap_outer.o(.text) refers to libspace.o(.text) for __user_perproc_libspace
    sys_stackheap_outer.o(.text) refers to startup_saml21g18b.o(.text) for __user_initial_stackheap
    sys_stackheap_outer.o(__vectab_stack_and_reset_area) refers to tempstk.o(.text) for __temporary_stack_top
    sys_stackheap_outer.o(__vectab_stack_and_reset_area) refers to __main.o(!!!main) for __main
    _printf_fp_infnan.o(.text) refers (Weak) to _printf_pad.o(.text) for _printf_pre_padding
    _printf_fp_infnan.o(.text) refers (Weak) to _printf_pad.o(.text) for _printf_post_padding
    bigflt0.o(.text) refers (Special) to usenofp.o(x$fpl$usenofp) for __I$use$fp
    bigflt0.o(.text) refers to aeabi_sdiv.o(.text) for __aeabi_idivmod
    bigflt0.o(.text) refers to btod.o(.text) for _btod_emul
    bigflt0.o(.text) refers to bigflt0.o(.constdata) for .constdata
    bigflt0.o(.constdata) refers (Special) to usenofp.o(x$fpl$usenofp) for __I$use$fp
    btod.o(.text) refers to btod.o(i.__ARM_common_ll_muluu) for __ARM_common_ll_muluu
    lc_numeric_c.o(locale$$data) refers (Special) to libinit2.o(.ARM.Collect$$libinit$$00000016) for __rt_lib_init_lc_numeric_2
    lc_numeric_c.o(locale$$code) refers (Special) to libinit2.o(.ARM.Collect$$libinit$$00000016) for __rt_lib_init_lc_numeric_2
    lc_numeric_c.o(locale$$code) refers to strcmp.o(.text) for strcmp
    lc_numeric_c.o(locale$$code) refers to lc_numeric_c.o(locale$$data) for __lcnum_c_name
    exit.o(.text) refers to rtexit.o(.ARM.Collect$$rtexit$$00000000) for __rt_exit
    defsig_fpe_outer.o(.text) refers to defsig_fpe_inner.o(.text) for __rt_SIGFPE_inner
    defsig_fpe_outer.o(.text) refers to defsig_exit.o(.text) for __sig_exit
    defsig_fpe_formal.o(.text) refers to rt_raise.o(.text) for __rt_raise
    _get_argv_nomalloc.o(.text) refers (Special) to hrguard.o(.text) for __heap_region$guard
    _get_argv_nomalloc.o(.text) refers to defsig_rtmem_outer.o(.text) for __rt_SIGRTMEM
    _get_argv_nomalloc.o(.text) refers to sys_command.o(.text) for _sys_command_string
    libinit.o(.ARM.Collect$$libinit$$00000000) refers (Special) to libinit2.o(.ARM.Collect$$libinit$$0000002E) for __rt_lib_init_alloca_1
    libinit.o(.ARM.Collect$$libinit$$00000000) refers (Special) to libinit2.o(.ARM.Collect$$libinit$$0000002C) for __rt_lib_init_argv_1
    libinit.o(.ARM.Collect$$libinit$$00000000) refers (Special) to libinit2.o(.ARM.Collect$$libinit$$0000001B) for __rt_lib_init_atexit_1
    libinit.o(.ARM.Collect$$libinit$$00000000) refers (Special) to libinit2.o(.ARM.Collect$$libinit$$00000021) for __rt_lib_init_clock_1
    libinit.o(.ARM.Collect$$libinit$$00000000) refers (Special) to libinit2.o(.ARM.Collect$$libinit$$00000032) for __rt_lib_init_cpp_1
    libinit.o(.ARM.Collect$$libinit$$00000000) refers (Special) to libinit2.o(.ARM.Collect$$libinit$$00000030) for __rt_lib_init_exceptions_1
    libinit.o(.ARM.Collect$$libinit$$00000000) refers (Special) to libinit2.o(.ARM.Collect$$libinit$$00000002) for __rt_lib_init_fp_1
    libinit.o(.ARM.Collect$$libinit$$00000000) refers (Special) to libinit2.o(.ARM.Collect$$libinit$$0000001F) for __rt_lib_init_fp_trap_1
    libinit.o(.ARM.Collect$$libinit$$00000000) refers (Special) to libinit2.o(.ARM.Collect$$libinit$$00000023) for __rt_lib_init_getenv_1
    libinit.o(.ARM.Collect$$libinit$$00000000) refers (Special) to libinit2.o(.ARM.Collect$$libinit$$0000000A) for __rt_lib_init_heap_1
    libinit.o(.ARM.Collect$$libinit$$00000000) refers (Special) to libinit2.o(.ARM.Collect$$libinit$$00000011) for __rt_lib_init_lc_collate_1
    libinit.o(.ARM.Collect$$libinit$$00000000) refers (Special) to libinit2.o(.ARM.Collect$$libinit$$00000013) for __rt_lib_init_lc_ctype_1
    libinit.o(.ARM.Collect$$libinit$$00000000) refers (Special) to libinit2.o(.ARM.Collect$$libinit$$00000015) for __rt_lib_init_lc_monetary_1
    libinit.o(.ARM.Collect$$libinit$$00000000) refers (Special) to libinit2.o(.ARM.Collect$$libinit$$00000017) for __rt_lib_init_lc_numeric_1
    libinit.o(.ARM.Collect$$libinit$$00000000) refers (Special) to libinit2.o(.ARM.Collect$$libinit$$00000019) for __rt_lib_init_lc_time_1
    libinit.o(.ARM.Collect$$libinit$$00000000) refers (Special) to libinit2.o(.ARM.Collect$$libinit$$00000004) for __rt_lib_init_preinit_1
    libinit.o(.ARM.Collect$$libinit$$00000000) refers (Special) to libinit2.o(.ARM.Collect$$libinit$$0000000E) for __rt_lib_init_rand_1
    libinit.o(.ARM.Collect$$libinit$$00000000) refers (Special) to libinit2.o(.ARM.Collect$$libinit$$00000033) for __rt_lib_init_return
    libinit.o(.ARM.Collect$$libinit$$00000000) refers (Special) to libinit2.o(.ARM.Collect$$libinit$$0000001D) for __rt_lib_init_signal_1
    libinit.o(.ARM.Collect$$libinit$$00000000) refers (Special) to libinit2.o(.ARM.Collect$$libinit$$00000025) for __rt_lib_init_stdio_1
    libinit.o(.ARM.Collect$$libinit$$00000000) refers (Special) to libinit2.o(.ARM.Collect$$libinit$$0000000C) for __rt_lib_init_user_alloc_1
    ieee_status.o(.text) refers (Special) to usenofp.o(x$fpl$usenofp) for __I$use$fp
    fpclassify.o(i.__ARM_fpclassify) refers (Special) to usenofp.o(x$fpl$usenofp) for __I$use$fp
    sys_command.o(.text) refers (Special) to use_no_semi.o(.text) for __I$use$semihosting
    sys_command.o(.text) refers (Special) to indicate_semi.o(.text) for __semihosting_library_function
    rtexit.o(.ARM.Collect$$rtexit$$00000000) refers (Special) to rtexit2.o(.ARM.Collect$$rtexit$$00000004) for __rt_exit_exit
    rtexit.o(.ARM.Collect$$rtexit$$00000000) refers (Special) to rtexit2.o(.ARM.Collect$$rtexit$$00000003) for __rt_exit_ls
    rtexit.o(.ARM.Collect$$rtexit$$00000000) refers (Special) to rtexit2.o(.ARM.Collect$$rtexit$$00000002) for __rt_exit_prels_1
    rtexit.o(.ARM.exidx) refers (Special) to rtexit2.o(.ARM.Collect$$rtexit$$00000004) for __rt_exit_exit
    rtexit.o(.ARM.exidx) refers (Special) to rtexit2.o(.ARM.Collect$$rtexit$$00000003) for __rt_exit_ls
    rtexit.o(.ARM.exidx) refers (Special) to rtexit2.o(.ARM.Collect$$rtexit$$00000002) for __rt_exit_prels_1
    rtexit.o(.ARM.exidx) refers to rtexit.o(.ARM.Collect$$rtexit$$00000000) for .ARM.Collect$$rtexit$$00000000
    rt_raise.o(.text) refers to __raise.o(.text) for __raise
    rt_raise.o(.text) refers to sys_exit.o(.text) for _sys_exit
    defsig_exit.o(.text) refers to sys_exit.o(.text) for _sys_exit
    defsig_fpe_inner.o(.text) refers to defsig_general.o(.text) for __default_signal_display
    defsig_rtmem_outer.o(.text) refers to defsig_rtmem_inner.o(.text) for __rt_SIGRTMEM_inner
    defsig_rtmem_outer.o(.text) refers to defsig_exit.o(.text) for __sig_exit
    defsig_rtmem_formal.o(.text) refers to rt_raise.o(.text) for __rt_raise
    sys_exit.o(.text) refers (Special) to use_no_semi.o(.text) for __I$use$semihosting
    sys_exit.o(.text) refers (Special) to indicate_semi.o(.text) for __semihosting_library_function
    rtexit2.o(.ARM.Collect$$rtexit$$00000003) refers to libshutdown.o(.ARM.Collect$$libshutdown$$00000000) for __rt_lib_shutdown
    rtexit2.o(.ARM.Collect$$rtexit$$00000004) refers to sys_exit.o(.text) for _sys_exit
    rtexit2.o(.ARM.exidx) refers to rtexit2.o(.ARM.Collect$$rtexit$$00000001) for .ARM.Collect$$rtexit$$00000001
    rtexit2.o(.ARM.exidx) refers to rtexit2.o(.ARM.Collect$$rtexit$$00000003) for .ARM.Collect$$rtexit$$00000003
    rtexit2.o(.ARM.exidx) refers to rtexit2.o(.ARM.Collect$$rtexit$$00000004) for .ARM.Collect$$rtexit$$00000004
    __raise.o(.text) refers to defsig.o(CL$$defsig) for __default_signal_handler
    defsig_general.o(.text) refers to sys_wrch.o(.text) for _ttywrch
    defsig_rtmem_inner.o(.text) refers to defsig_general.o(.text) for __default_signal_display
    sys_wrch.o(.text) refers (Special) to use_no_semi.o(.text) for __I$use$semihosting
    sys_wrch.o(.text) refers (Special) to indicate_semi.o(.text) for __semihosting_library_function
    defsig.o(CL$$defsig) refers to defsig_fpe_inner.o(.text) for __rt_SIGFPE_inner
    defsig.o(CL$$defsig) refers to defsig_rtmem_inner.o(.text) for __rt_SIGRTMEM_inner
    libshutdown.o(.ARM.Collect$$libshutdown$$00000000) refers (Special) to libshutdown2.o(.ARM.Collect$$libshutdown$$00000004) for __rt_lib_shutdown_cpp_1
    libshutdown.o(.ARM.Collect$$libshutdown$$00000000) refers (Special) to libshutdown2.o(.ARM.Collect$$libshutdown$$00000002) for __rt_lib_shutdown_fini_1
    libshutdown.o(.ARM.Collect$$libshutdown$$00000000) refers (Special) to libshutdown2.o(.ARM.Collect$$libshutdown$$00000009) for __rt_lib_shutdown_fp_trap_1
    libshutdown.o(.ARM.Collect$$libshutdown$$00000000) refers (Special) to libshutdown2.o(.ARM.Collect$$libshutdown$$00000011) for __rt_lib_shutdown_heap_1
    libshutdown.o(.ARM.Collect$$libshutdown$$00000000) refers (Special) to libshutdown2.o(.ARM.Collect$$libshutdown$$00000012) for __rt_lib_shutdown_return
    libshutdown.o(.ARM.Collect$$libshutdown$$00000000) refers (Special) to libshutdown2.o(.ARM.Collect$$libshutdown$$0000000C) for __rt_lib_shutdown_signal_1
    libshutdown.o(.ARM.Collect$$libshutdown$$00000000) refers (Special) to libshutdown2.o(.ARM.Collect$$libshutdown$$00000006) for __rt_lib_shutdown_stdio_1
    libshutdown.o(.ARM.Collect$$libshutdown$$00000000) refers (Special) to libshutdown2.o(.ARM.Collect$$libshutdown$$0000000E) for __rt_lib_shutdown_user_alloc_1
    defsig_abrt_inner.o(.text) refers to defsig_general.o(.text) for __default_signal_display
    defsig_rtred_inner.o(.text) refers to defsig_general.o(.text) for __default_signal_display
    defsig_stak_inner.o(.text) refers to defsig_general.o(.text) for __default_signal_display
    defsig_pvfn_inner.o(.text) refers to defsig_general.o(.text) for __default_signal_display
    defsig_cppl_inner.o(.text) refers to defsig_general.o(.text) for __default_signal_display
    defsig_segv_inner.o(.text) refers to defsig_general.o(.text) for __default_signal_display
    defsig_other.o(.text) refers to defsig_general.o(.text) for __default_signal_display


==============================================================================

Removing Unused input sections from the image.

    Removing main.o(.rev16_text), (4 bytes).
    Removing main.o(.revsh_text), (4 bytes).
    Removing main.o(.ARM.exidx), (8 bytes).
    Removing main.o(.ARM.exidx), (8 bytes).
    Removing main.o(.ARM.exidx), (8 bytes).
    Removing main.o(.ARM.exidx), (8 bytes).
    Removing main.o(.ARM.exidx), (8 bytes).
    Removing main.o(.ARM.exidx), (8 bytes).
    Removing main.o(.ARM.exidx), (8 bytes).
    Removing main.o(.ARM.exidx), (8 bytes).
    Removing main.o(.data), (1 bytes).
    Removing main.o(.data), (1 bytes).
    Removing system_setup.o(.rev16_text), (4 bytes).
    Removing system_setup.o(.revsh_text), (4 bytes).
    Removing system_setup.o(i._Z7verifyPtPht), (48 bytes).
    Removing system_setup.o(.ARM.exidx), (8 bytes).
    Removing system_setup.o(.ARM.exidx), (8 bytes).
    Removing system_setup.o(.data), (512 bytes).
    Removing bluetooth.o(.rev16_text), (4 bytes).
    Removing bluetooth.o(.revsh_text), (4 bytes).
    Removing bluetooth.o(.ARM.exidx), (8 bytes).
    Removing sendingdata.o(.rev16_text), (4 bytes).
    Removing sendingdata.o(.revsh_text), (4 bytes).
    Removing sendingdata.o(i._Z8tcp_readv), (224 bytes).
    Removing sendingdata.o(i._Z9http_testv), (780 bytes).
    Removing sendingdata.o(i._Z9tcp_writev), (192 bytes).
    Removing sendingdata.o(.ARM.exidx), (8 bytes).
    Removing sendingdata.o(.ARM.exidx), (8 bytes).
    Removing sendingdata.o(.ARM.exidx), (8 bytes).
    Removing sendingdata.o(.conststring), (183 bytes).
    Removing gsm_usart.o(.rev16_text), (4 bytes).
    Removing gsm_usart.o(.revsh_text), (4 bytes).
    Removing gsm_usart.o(i._Z11at_send_cmdPKc15AT_COMMAND_TYPE), (64 bytes).
    Removing gsm_usart.o(i._Z5at_OKPKc), (24 bytes).
    Removing gsm_usart.o(i._Z8at_ERRORPKc), (28 bytes).
    Removing gsm_usart.o(i._Z9read_respPKc), (28 bytes).
    Removing gsm_usart.o(.ARM.exidx), (8 bytes).
    Removing gsm_usart.o(.ARM.exidx), (8 bytes).
    Removing gsm_usart.o(.ARM.exidx), (8 bytes).
    Removing gsm_usart.o(.ARM.exidx), (8 bytes).
    Removing gsm_usart.o(.ARM.exidx), (8 bytes).
    Removing gsm_usart.o(.ARM.exidx), (8 bytes).
    Removing gsm_usart.o(.ARM.exidx), (8 bytes).
    Removing gsm_usart.o(.bss), (128 bytes).
    Removing gsm_usart.o(.data), (4 bytes).
    Removing gsm_usart.o(.data), (1 bytes).
    Removing gsm_usart.o(.data), (1 bytes).
    Removing rtc.o(.rev16_text), (4 bytes).
    Removing rtc.o(.revsh_text), (4 bytes).
    Removing rtc.o(i._Z13get_timestampP9timestamp), (2 bytes).
    Removing rtc.o(i._Z13set_timestampP9timestamp), (16 bytes).
    Removing rtc.o(.ARM.exidx), (8 bytes).
    Removing rtc.o(.ARM.exidx), (8 bytes).
    Removing rtc.o(.ARM.exidx), (8 bytes).
    Removing sercom.o(.rev16_text), (4 bytes).
    Removing sercom.o(.revsh_text), (4 bytes).
    Removing sercom.o(.ARM.exidx), (8 bytes).
    Removing sercom.o(.ARM.exidx), (8 bytes).
    Removing sercom.o(.ARM.exidx), (8 bytes).
    Removing api.o(.rev16_text), (4 bytes).
    Removing api.o(.revsh_text), (4 bytes).
    Removing api.o(i._ZN13Smartmesh_API10packetTypeEPh), (4 bytes).
    Removing api.o(i._ZN13Smartmesh_API10setJoinKeyEPh), (60 bytes).
    Removing api.o(i._ZN13Smartmesh_API11getMoteInfoEPh), (60 bytes).
    Removing api.o(i._ZN13Smartmesh_API14getNetworkInfoEv), (48 bytes).
    Removing api.o(i._ZN13Smartmesh_API15clearStatisticsEv), (48 bytes).
    Removing api.o(i._ZN13Smartmesh_API15getHardwareInfoEv), (48 bytes).
    Removing api.o(i._ZN13Smartmesh_API16getNetworkConfigEv), (48 bytes).
    Removing api.o(i._ZN13Smartmesh_API16parseGetMoteInfoEP9mote_infoPh), (160 bytes).
    Removing api.o(i._ZN13Smartmesh_API16setNetworkConfigEPh), (116 bytes).
    Removing api.o(i._ZN13Smartmesh_API17parseHardwareInfoEP11system_infoPh), (64 bytes).
    Removing api.o(i._ZN13Smartmesh_API21parseDataNotificationEP10data_notifPh), (140 bytes).
    Removing api.o(i._ZN13Smartmesh_API23getMoteConfigFromMoteIdEt), (60 bytes).
    Removing api.o(i._ZN13Smartmesh_API8sendDataEyhttPhh), (92 bytes).
    Removing api.o(.ARM.exidx), (8 bytes).
    Removing api.o(.ARM.exidx), (8 bytes).
    Removing api.o(.ARM.exidx), (8 bytes).
    Removing api.o(.ARM.exidx), (8 bytes).
    Removing api.o(.ARM.exidx), (8 bytes).
    Removing api.o(.ARM.exidx), (8 bytes).
    Removing api.o(.ARM.exidx), (8 bytes).
    Removing api.o(.ARM.exidx), (8 bytes).
    Removing api.o(.ARM.exidx), (8 bytes).
    Removing api.o(.ARM.exidx), (8 bytes).
    Removing api.o(.ARM.exidx), (8 bytes).
    Removing api.o(.ARM.exidx), (8 bytes).
    Removing api.o(.ARM.exidx), (8 bytes).
    Removing api.o(.ARM.exidx), (8 bytes).
    Removing api.o(.ARM.exidx), (8 bytes).
    Removing api.o(.ARM.exidx), (8 bytes).
    Removing api.o(.ARM.exidx), (8 bytes).
    Removing api.o(.ARM.exidx), (8 bytes).
    Removing api.o(.ARM.exidx), (8 bytes).
    Removing api.o(.ARM.exidx), (8 bytes).
    Removing api.o(.ARM.exidx), (8 bytes).
    Removing clib_arm.o(.rev16_text), (4 bytes).
    Removing clib_arm.o(.revsh_text), (4 bytes).
    Removing clib_arm.o(i.__user_perthread_libspace), (80 bytes).
    Removing cmsis_os2.o(.rev16_text), (4 bytes).
    Removing cmsis_os2.o(.revsh_text), (4 bytes).
    Removing cmsis_os2.o(i.AllocBlock), (18 bytes).
    Removing cmsis_os2.o(i.CreateBlock), (26 bytes).
    Removing cmsis_os2.o(i.FreeBlock), (8 bytes).
    Removing cmsis_os2.o(i.IRQ_Context), (38 bytes).
    Removing cmsis_os2.o(i.TimerCallback), (22 bytes).
    Removing cmsis_os2.o(i.osDelay), (34 bytes).
    Removing cmsis_os2.o(i.osDelayUntil), (56 bytes).
    Removing cmsis_os2.o(i.osEventFlagsClear), (84 bytes).
    Removing cmsis_os2.o(i.osEventFlagsDelete), (40 bytes).
    Removing cmsis_os2.o(i.osEventFlagsGet), (36 bytes).
    Removing cmsis_os2.o(i.osEventFlagsNew), (82 bytes).
    Removing cmsis_os2.o(i.osEventFlagsSet), (84 bytes).
    Removing cmsis_os2.o(i.osEventFlagsWait), (116 bytes).
    Removing cmsis_os2.o(i.osKernelGetInfo), (64 bytes).
    Removing cmsis_os2.o(i.osKernelGetState), (44 bytes).
    Removing cmsis_os2.o(i.osKernelGetSysTimerCount), (62 bytes).
    Removing cmsis_os2.o(i.osKernelGetSysTimerFreq), (12 bytes).
    Removing cmsis_os2.o(i.osKernelGetTickCount), (22 bytes).
    Removing cmsis_os2.o(i.osKernelGetTickFreq), (6 bytes).
    Removing cmsis_os2.o(i.osKernelInitialize), (52 bytes).
    Removing cmsis_os2.o(i.osKernelLock), (46 bytes).
    Removing cmsis_os2.o(i.osKernelRestoreLock), (78 bytes).
    Removing cmsis_os2.o(i.osKernelStart), (68 bytes).
    Removing cmsis_os2.o(i.osKernelUnlock), (64 bytes).
    Removing cmsis_os2.o(i.osMemoryPoolAlloc), (148 bytes).
    Removing cmsis_os2.o(i.osMemoryPoolDelete), (96 bytes).
    Removing cmsis_os2.o(i.osMemoryPoolFree), (184 bytes).
    Removing cmsis_os2.o(i.osMemoryPoolGetBlockSize), (28 bytes).
    Removing cmsis_os2.o(i.osMemoryPoolGetCapacity), (28 bytes).
    Removing cmsis_os2.o(i.osMemoryPoolGetCount), (56 bytes).
    Removing cmsis_os2.o(i.osMemoryPoolGetName), (28 bytes).
    Removing cmsis_os2.o(i.osMemoryPoolGetSpace), (52 bytes).
    Removing cmsis_os2.o(i.osMemoryPoolNew), (284 bytes).
    Removing cmsis_os2.o(i.osMessageQueueDelete), (40 bytes).
    Removing cmsis_os2.o(i.osMessageQueueGet), (124 bytes).
    Removing cmsis_os2.o(i.osMessageQueueGetCapacity), (12 bytes).
    Removing cmsis_os2.o(i.osMessageQueueGetCount), (36 bytes).
    Removing cmsis_os2.o(i.osMessageQueueGetMsgSize), (12 bytes).
    Removing cmsis_os2.o(i.osMessageQueueGetSpace), (48 bytes).
    Removing cmsis_os2.o(i.osMessageQueueNew), (138 bytes).
    Removing cmsis_os2.o(i.osMessageQueuePut), (128 bytes).
    Removing cmsis_os2.o(i.osMessageQueueReset), (42 bytes).
    Removing cmsis_os2.o(i.osMutexAcquire), (100 bytes).
    Removing cmsis_os2.o(i.osMutexDelete), (42 bytes).
    Removing cmsis_os2.o(i.osMutexGetOwner), (30 bytes).
    Removing cmsis_os2.o(i.osMutexNew), (154 bytes).
    Removing cmsis_os2.o(i.osMutexRelease), (78 bytes).
    Removing cmsis_os2.o(i.osSemaphoreAcquire), (108 bytes).
    Removing cmsis_os2.o(i.osSemaphoreDelete), (40 bytes).
    Removing cmsis_os2.o(i.osSemaphoreGetCount), (36 bytes).
    Removing cmsis_os2.o(i.osSemaphoreNew), (174 bytes).
    Removing cmsis_os2.o(i.osSemaphoreRelease), (88 bytes).
    Removing cmsis_os2.o(i.osThreadEnumerate), (98 bytes).
    Removing cmsis_os2.o(i.osThreadExit), (8 bytes).
    Removing cmsis_os2.o(i.osThreadFlagsClear), (94 bytes).
    Removing cmsis_os2.o(i.osThreadFlagsGet), (50 bytes).
    Removing cmsis_os2.o(i.osThreadFlagsSet), (132 bytes).
    Removing cmsis_os2.o(i.osThreadFlagsWait), (164 bytes).
    Removing cmsis_os2.o(i.osThreadGetCount), (20 bytes).
    Removing cmsis_os2.o(i.osThreadGetId), (8 bytes).
    Removing cmsis_os2.o(i.osThreadGetName), (28 bytes).
    Removing cmsis_os2.o(i.osThreadGetPriority), (30 bytes).
    Removing cmsis_os2.o(i.osThreadGetStackSpace), (30 bytes).
    Removing cmsis_os2.o(i.osThreadGetState), (64 bytes).
    Removing cmsis_os2.o(i.osThreadNew), (188 bytes).
    Removing cmsis_os2.o(i.osThreadResume), (40 bytes).
    Removing cmsis_os2.o(i.osThreadSetPriority), (52 bytes).
    Removing cmsis_os2.o(i.osThreadSuspend), (40 bytes).
    Removing cmsis_os2.o(i.osThreadTerminate), (56 bytes).
    Removing cmsis_os2.o(i.osThreadYield), (26 bytes).
    Removing cmsis_os2.o(i.osTimerDelete), (78 bytes).
    Removing cmsis_os2.o(i.osTimerGetName), (28 bytes).
    Removing cmsis_os2.o(i.osTimerIsRunning), (28 bytes).
    Removing cmsis_os2.o(i.osTimerNew), (216 bytes).
    Removing cmsis_os2.o(i.osTimerStart), (60 bytes).
    Removing cmsis_os2.o(i.osTimerStop), (74 bytes).
    Removing cmsis_os2.o(.data), (4 bytes).
    Removing os_systick.o(.rev16_text), (4 bytes).
    Removing os_systick.o(.revsh_text), (4 bytes).
    Removing os_systick.o(i.OS_Tick_AcknowledgeIRQ), (12 bytes).
    Removing os_systick.o(i.OS_Tick_Disable), (44 bytes).
    Removing os_systick.o(i.OS_Tick_Enable), (44 bytes).
    Removing os_systick.o(i.OS_Tick_GetClock), (12 bytes).
    Removing os_systick.o(i.OS_Tick_GetCount), (16 bytes).
    Removing os_systick.o(i.OS_Tick_GetIRQn), (6 bytes).
    Removing os_systick.o(i.OS_Tick_GetInterval), (12 bytes).
    Removing os_systick.o(i.OS_Tick_GetOverflow), (16 bytes).
    Removing os_systick.o(i.OS_Tick_Setup), (88 bytes).
    Removing os_systick.o(.data), (1 bytes).
    Removing system_saml21g18b.o(.rev16_text), (4 bytes).
    Removing system_saml21g18b.o(.revsh_text), (4 bytes).
    Removing system_saml21g18b.o(i.SystemCoreClockUpdate), (16 bytes).
    Removing freertos_evr.o(.rev16_text), (4 bytes).
    Removing freertos_evr.o(.revsh_text), (4 bytes).
    Removing croutine.o(.rev16_text), (4 bytes).
    Removing croutine.o(.revsh_text), (4 bytes).
    Removing event_groups.o(.rev16_text), (4 bytes).
    Removing event_groups.o(.revsh_text), (4 bytes).
    Removing event_groups.o(i.prvTestWaitCondition), (24 bytes).
    Removing event_groups.o(i.uxEventGroupGetNumber), (12 bytes).
    Removing event_groups.o(i.vEventGroupClearBitsCallback), (8 bytes).
    Removing event_groups.o(i.vEventGroupDelete), (68 bytes).
    Removing event_groups.o(i.vEventGroupSetBitsCallback), (8 bytes).
    Removing event_groups.o(i.vEventGroupSetNumber), (4 bytes).
    Removing event_groups.o(i.xEventGroupClearBits), (42 bytes).
    Removing event_groups.o(i.xEventGroupClearBitsFromISR), (20 bytes).
    Removing event_groups.o(i.xEventGroupCreate), (30 bytes).
    Removing event_groups.o(i.xEventGroupCreateStatic), (34 bytes).
    Removing event_groups.o(i.xEventGroupGetBitsFromISR), (18 bytes).
    Removing event_groups.o(i.xEventGroupSetBits), (130 bytes).
    Removing event_groups.o(i.xEventGroupSetBitsFromISR), (20 bytes).
    Removing event_groups.o(i.xEventGroupSync), (162 bytes).
    Removing event_groups.o(i.xEventGroupWaitBits), (212 bytes).
    Removing list.o(.rev16_text), (4 bytes).
    Removing list.o(.revsh_text), (4 bytes).
    Removing heap_4.o(.rev16_text), (4 bytes).
    Removing heap_4.o(.revsh_text), (4 bytes).
    Removing heap_4.o(i.vPortGetHeapStats), (96 bytes).
    Removing heap_4.o(i.vPortInitialiseBlocks), (2 bytes).
    Removing heap_4.o(i.xPortGetFreeHeapSize), (12 bytes).
    Removing heap_4.o(i.xPortGetMinimumEverFreeHeapSize), (12 bytes).
    Removing port.o(.rev16_text), (4 bytes).
    Removing port.o(.revsh_text), (4 bytes).
    Removing port.o(i.vPortEndScheduler), (24 bytes).
    Removing queue.o(.rev16_text), (4 bytes).
    Removing queue.o(.revsh_text), (4 bytes).
    Removing queue.o(i.ucQueueGetQueueType), (6 bytes).
    Removing queue.o(i.uxQueueGetQueueNumber), (4 bytes).
    Removing queue.o(i.uxQueueMessagesWaiting), (26 bytes).
    Removing queue.o(i.uxQueueMessagesWaitingFromISR), (12 bytes).
    Removing queue.o(i.uxQueueSpacesAvailable), (30 bytes).
    Removing queue.o(i.vQueueSetQueueNumber), (4 bytes).
    Removing queue.o(i.xQueueCreateCountingSemaphoreStatic), (38 bytes).
    Removing queue.o(i.xQueueGetMutexHolder), (36 bytes).
    Removing queue.o(i.xQueueGetMutexHolderFromISR), (22 bytes).
    Removing queue.o(i.xQueueGiveMutexRecursive), (54 bytes).
    Removing queue.o(i.xQueueIsQueueEmptyFromISR), (22 bytes).
    Removing queue.o(i.xQueueIsQueueFullFromISR), (24 bytes).
    Removing queue.o(i.xQueuePeek), (264 bytes).
    Removing queue.o(i.xQueuePeekFromISR), (80 bytes).
    Removing queue.o(i.xQueueTakeMutexRecursive), (54 bytes).
    Removing stream_buffer.o(.rev16_text), (4 bytes).
    Removing stream_buffer.o(.revsh_text), (4 bytes).
    Removing stream_buffer.o(i.prvBytesInBuffer), (18 bytes).
    Removing stream_buffer.o(i.prvInitialiseNewStreamBuffer), (48 bytes).
    Removing stream_buffer.o(i.prvReadBytesFromBuffer), (88 bytes).
    Removing stream_buffer.o(i.prvReadMessageFromBuffer), (70 bytes).
    Removing stream_buffer.o(i.prvWriteBytesToBuffer), (90 bytes).
    Removing stream_buffer.o(i.prvWriteMessageToBuffer), (74 bytes).
    Removing stream_buffer.o(i.ucStreamBufferGetStreamBufferType), (8 bytes).
    Removing stream_buffer.o(i.uxStreamBufferGetStreamBufferNumber), (4 bytes).
    Removing stream_buffer.o(i.vStreamBufferDelete), (30 bytes).
    Removing stream_buffer.o(i.vStreamBufferSetStreamBufferNumber), (4 bytes).
    Removing stream_buffer.o(i.xStreamBufferBytesAvailable), (16 bytes).
    Removing stream_buffer.o(i.xStreamBufferGenericCreate), (94 bytes).
    Removing stream_buffer.o(i.xStreamBufferGenericCreateStatic), (86 bytes).
    Removing stream_buffer.o(i.xStreamBufferIsEmpty), (24 bytes).
    Removing stream_buffer.o(i.xStreamBufferIsFull), (38 bytes).
    Removing stream_buffer.o(i.xStreamBufferNextMessageLengthBytes), (60 bytes).
    Removing stream_buffer.o(i.xStreamBufferReceive), (190 bytes).
    Removing stream_buffer.o(i.xStreamBufferReceiveCompletedFromISR), (62 bytes).
    Removing stream_buffer.o(i.xStreamBufferReceiveFromISR), (112 bytes).
    Removing stream_buffer.o(i.xStreamBufferReset), (62 bytes).
    Removing stream_buffer.o(i.xStreamBufferSend), (240 bytes).
    Removing stream_buffer.o(i.xStreamBufferSendCompletedFromISR), (62 bytes).
    Removing stream_buffer.o(i.xStreamBufferSendFromISR), (120 bytes).
    Removing stream_buffer.o(i.xStreamBufferSetTriggerLevel), (32 bytes).
    Removing stream_buffer.o(i.xStreamBufferSpacesAvailable), (40 bytes).
    Removing tasks.o(.rev16_text), (4 bytes).
    Removing tasks.o(.revsh_text), (4 bytes).
    Removing tasks.o(i.eTaskGetState), (120 bytes).
    Removing tasks.o(i.pcTaskGetName), (24 bytes).
    Removing tasks.o(i.prvListTasksWithinSingleList), (88 bytes).
    Removing tasks.o(i.prvTaskCheckFreeStackSpace), (20 bytes).
    Removing tasks.o(i.prvTaskIsTaskSuspended), (44 bytes).
    Removing tasks.o(i.ulTaskGenericNotifyTake), (104 bytes).
    Removing tasks.o(i.ulTaskGenericNotifyValueClear), (48 bytes).
    Removing tasks.o(i.uxTaskGetNumberOfTasks), (12 bytes).
    Removing tasks.o(i.uxTaskGetStackHighWaterMark), (24 bytes).
    Removing tasks.o(i.uxTaskGetSystemState), (148 bytes).
    Removing tasks.o(i.uxTaskGetTaskNumber), (12 bytes).
    Removing tasks.o(i.uxTaskPriorityGet), (32 bytes).
    Removing tasks.o(i.uxTaskPriorityGetFromISR), (32 bytes).
    Removing tasks.o(i.uxTaskResetEventItemValue), (24 bytes).
    Removing tasks.o(i.vTaskEndScheduler), (20 bytes).
    Removing tasks.o(i.vTaskGenericNotifyGiveFromISR), (224 bytes).
    Removing tasks.o(i.vTaskGetInfo), (116 bytes).
    Removing tasks.o(i.vTaskPlaceOnUnorderedEventList), (84 bytes).
    Removing tasks.o(i.vTaskPrioritySet), (176 bytes).
    Removing tasks.o(i.vTaskRemoveFromUnorderedEventList), (172 bytes).
    Removing tasks.o(i.vTaskResume), (124 bytes).
    Removing tasks.o(i.vTaskSetTaskNumber), (8 bytes).
    Removing tasks.o(i.vTaskSetTimeOutState), (36 bytes).
    Removing tasks.o(i.vTaskSuspend), (144 bytes).
    Removing tasks.o(i.xTaskCatchUpTicks), (36 bytes).
    Removing tasks.o(i.xTaskDelayUntil), (108 bytes).
    Removing tasks.o(i.xTaskGenericNotify), (244 bytes).
    Removing tasks.o(i.xTaskGenericNotifyFromISR), (300 bytes).
    Removing tasks.o(i.xTaskGenericNotifyStateClear), (56 bytes).
    Removing tasks.o(i.xTaskGenericNotifyWait), (132 bytes).
    Removing tasks.o(i.xTaskGetCurrentTaskHandle), (12 bytes).
    Removing tasks.o(i.xTaskGetTickCountFromISR), (12 bytes).
    Removing tasks.o(i.xTaskResumeFromISR), (148 bytes).
    Removing timers.o(.rev16_text), (4 bytes).
    Removing timers.o(.revsh_text), (4 bytes).
    Removing timers.o(i.pcTimerGetName), (12 bytes).
    Removing timers.o(i.prvInitialiseNewTimer), (60 bytes).
    Removing timers.o(i.pvTimerGetTimerID), (26 bytes).
    Removing timers.o(i.uxTimerGetReloadMode), (38 bytes).
    Removing timers.o(i.uxTimerGetTimerNumber), (4 bytes).
    Removing timers.o(i.vTimerSetReloadMode), (48 bytes).
    Removing timers.o(i.vTimerSetTimerID), (26 bytes).
    Removing timers.o(i.vTimerSetTimerNumber), (4 bytes).
    Removing timers.o(i.xTimerCreate), (50 bytes).
    Removing timers.o(i.xTimerCreateStatic), (40 bytes).
    Removing timers.o(i.xTimerGenericCommand), (100 bytes).
    Removing timers.o(i.xTimerGetExpiryTime), (12 bytes).
    Removing timers.o(i.xTimerGetPeriod), (12 bytes).
    Removing timers.o(i.xTimerGetTimerDaemonTaskHandle), (20 bytes).
    Removing timers.o(i.xTimerIsTimerActive), (38 bytes).
    Removing timers.o(i.xTimerPendFunctionCall), (48 bytes).
    Removing timers.o(i.xTimerPendFunctionCallFromISR), (40 bytes).

322 unused section(s) (total 15952 bytes) removed from the image.

==============================================================================

Image Symbol Table

    Local Symbols

    Symbol Name                              Value     Ov Type        Size  Object(Section)

    RESET                                    0x00000000   Section      176  startup_saml21g18b.o(RESET)
    ../clib/../cmprslib/lz77c.c              0x00000000   Number         0  __dclz77c.o ABSOLUTE
    ../clib/angel/boardlib.s                 0x00000000   Number         0  boardinit1.o ABSOLUTE
    ../clib/angel/boardlib.s                 0x00000000   Number         0  boardshut.o ABSOLUTE
    ../clib/angel/boardlib.s                 0x00000000   Number         0  boardinit3.o ABSOLUTE
    ../clib/angel/handlers.s                 0x00000000   Number         0  __scatter_zi.o ABSOLUTE
    ../clib/angel/kernel.s                   0x00000000   Number         0  rtexit2.o ABSOLUTE
    ../clib/angel/kernel.s                   0x00000000   Number         0  rtexit.o ABSOLUTE
    ../clib/angel/kernel.s                   0x00000000   Number         0  __rtentry4.o ABSOLUTE
    ../clib/angel/kernel.s                   0x00000000   Number         0  __rtentry2.o ABSOLUTE
    ../clib/angel/kernel.s                   0x00000000   Number         0  __rtentry.o ABSOLUTE
    ../clib/angel/rt.s                       0x00000000   Number         0  rt_ctype_table.o ABSOLUTE
    ../clib/angel/rt.s                       0x00000000   Number         0  aeabi_idiv0.o ABSOLUTE
    ../clib/angel/rt.s                       0x00000000   Number         0  aeabi_idiv0_sigfpe.o ABSOLUTE
    ../clib/angel/rt.s                       0x00000000   Number         0  rt_locale.o ABSOLUTE
    ../clib/angel/rt.s                       0x00000000   Number         0  rt_locale_twolibspace.o ABSOLUTE
    ../clib/angel/rt.s                       0x00000000   Number         0  rt_raise.o ABSOLUTE
    ../clib/angel/rt.s                       0x00000000   Number         0  rt_locale_intlibspace.o ABSOLUTE
    ../clib/angel/rt.s                       0x00000000   Number         0  rt_div0.o ABSOLUTE
    ../clib/angel/scatterp.s                 0x00000000   Number         0  __scatter.o ABSOLUTE
    ../clib/angel/startup.s                  0x00000000   Number         0  __main.o ABSOLUTE
    ../clib/angel/sys.s                      0x00000000   Number         0  indicate_semi.o ABSOLUTE
    ../clib/angel/sys.s                      0x00000000   Number         0  use_no_semi.o ABSOLUTE
    ../clib/angel/sys.s                      0x00000000   Number         0  tempstk.o ABSOLUTE
    ../clib/angel/sys.s                      0x00000000   Number         0  sys_stackheap_outer.o ABSOLUTE
    ../clib/angel/sys.s                      0x00000000   Number         0  libspace.o ABSOLUTE
    ../clib/angel/sysapp.c                   0x00000000   Number         0  sys_exit.o ABSOLUTE
    ../clib/angel/sysapp.c                   0x00000000   Number         0  sys_command.o ABSOLUTE
    ../clib/angel/sysapp.c                   0x00000000   Number         0  sys_wrch.o ABSOLUTE
    ../clib/arm_runtime.c                    0x00000000   Number         0  init_aeabi.o ABSOLUTE
    ../clib/arm_runtime.c                    0x00000000   Number         0  init_aeabi.o ABSOLUTE
    ../clib/armsys.c                         0x00000000   Number         0  no_argv.o ABSOLUTE
    ../clib/armsys.c                         0x00000000   Number         0  _get_argv_nomalloc.o ABSOLUTE
    ../clib/armsys.c                         0x00000000   Number         0  argv_veneer.o ABSOLUTE
    ../clib/bigflt.c                         0x00000000   Number         0  bigflt0.o ABSOLUTE
    ../clib/btod.c                           0x00000000   Number         0  btod.o ABSOLUTE
    ../clib/ctype.c                          0x00000000   Number         0  isspace.o ABSOLUTE
    ../clib/division.c                       0x00000000   Number         0  lludiv10.o ABSOLUTE
    ../clib/division.c                       0x00000000   Number         0  rtudiv10.o ABSOLUTE
    ../clib/division.s                       0x00000000   Number         0  aeabi_sdiv_div0.o ABSOLUTE
    ../clib/division.s                       0x00000000   Number         0  aeabi_sdiv.o ABSOLUTE
    ../clib/heapalloc.c                      0x00000000   Number         0  hrguard.o ABSOLUTE
    ../clib/heapaux.c                        0x00000000   Number         0  heapauxi.o ABSOLUTE
    ../clib/libinit.s                        0x00000000   Number         0  libinit2.o ABSOLUTE
    ../clib/libinit.s                        0x00000000   Number         0  libshutdown2.o ABSOLUTE
    ../clib/libinit.s                        0x00000000   Number         0  libshutdown.o ABSOLUTE
    ../clib/libinit.s                        0x00000000   Number         0  libinit.o ABSOLUTE
    ../clib/locale.c                         0x00000000   Number         0  _wcrtomb.o ABSOLUTE
    ../clib/locale.s                         0x00000000   Number         0  lc_ctype_c.o ABSOLUTE
    ../clib/locale.s                         0x00000000   Number         0  lc_numeric_c.o ABSOLUTE
    ../clib/memcpset.c                       0x00000000   Number         0  rt_memcpy.o ABSOLUTE
    ../clib/memcpset.c                       0x00000000   Number         0  rt_memcpy.o ABSOLUTE
    ../clib/memcpset.c                       0x00000000   Number         0  memset.o ABSOLUTE
    ../clib/memcpset.c                       0x00000000   Number         0  rt_memclr.o ABSOLUTE
    ../clib/memcpset.c                       0x00000000   Number         0  aeabi_memset.o ABSOLUTE
    ../clib/misc.s                           0x00000000   Number         0  printf_stubs.o ABSOLUTE
    ../clib/printf.c                         0x00000000   Number         0  _sputc.o ABSOLUTE
    ../clib/printf.c                         0x00000000   Number         0  _printf_wctomb.o ABSOLUTE
    ../clib/printf.c                         0x00000000   Number         0  _printf_pad.o ABSOLUTE
    ../clib/printf.c                         0x00000000   Number         0  _printf_longlong_dec.o ABSOLUTE
    ../clib/printf.c                         0x00000000   Number         0  __printf.o ABSOLUTE
    ../clib/printf.c                         0x00000000   Number         0  _printf_oct_int.o ABSOLUTE
    ../clib/printf.c                         0x00000000   Number         0  _printf_oct_int_ll.o ABSOLUTE
    ../clib/printf.c                         0x00000000   Number         0  _printf_hex_ll.o ABSOLUTE
    ../clib/printf.c                         0x00000000   Number         0  _printf_hex_int.o ABSOLUTE
    ../clib/printf.c                         0x00000000   Number         0  _printf_hex_int_ll.o ABSOLUTE
    ../clib/printf.c                         0x00000000   Number         0  _printf_oct_ll.o ABSOLUTE
    ../clib/printf.c                         0x00000000   Number         0  _printf_intcommon.o ABSOLUTE
    ../clib/printf.c                         0x00000000   Number         0  c89vsprintf.o ABSOLUTE
    ../clib/printf.c                         0x00000000   Number         0  _printf_hex_ptr.o ABSOLUTE
    ../clib/printf.c                         0x00000000   Number         0  _printf_hex_int_ptr.o ABSOLUTE
    ../clib/printf.c                         0x00000000   Number         0  _printf_fp_infnan.o ABSOLUTE
    ../clib/printf.c                         0x00000000   Number         0  _printf_hex_ll_ptr.o ABSOLUTE
    ../clib/printf.c                         0x00000000   Number         0  _printf_dec.o ABSOLUTE
    ../clib/printf.c                         0x00000000   Number         0  _printf_hex_int_ll_ptr.o ABSOLUTE
    ../clib/printf.c                         0x00000000   Number         0  _printf_char_common.o ABSOLUTE
    ../clib/printf.c                         0x00000000   Number         0  _printf_str.o ABSOLUTE
    ../clib/printf.c                         0x00000000   Number         0  _printf_truncate.o ABSOLUTE
    ../clib/printf.c                         0x00000000   Number         0  _printf_charcount.o ABSOLUTE
    ../clib/printf.c                         0x00000000   Number         0  __printf_ss.o ABSOLUTE
    ../clib/printf.c                         0x00000000   Number         0  __printf_flags_ss.o ABSOLUTE
    ../clib/printf.c                         0x00000000   Number         0  __printf_wp.o ABSOLUTE
    ../clib/printf.c                         0x00000000   Number         0  __printf_flags_wp.o ABSOLUTE
    ../clib/printf.c                         0x00000000   Number         0  __printf_flags.o ABSOLUTE
    ../clib/printf.c                         0x00000000   Number         0  __printf_flags_ss_wp.o ABSOLUTE
    ../clib/printf.c                         0x00000000   Number         0  _printf_wchar.o ABSOLUTE
    ../clib/printf.c                         0x00000000   Number         0  _printf_char.o ABSOLUTE
    ../clib/printf.c                         0x00000000   Number         0  __printf_nopercent.o ABSOLUTE
    ../clib/printf.c                         0x00000000   Number         0  _printf_fp_dec.o ABSOLUTE
    ../clib/printf.c                         0x00000000   Number         0  __printf_ss_wp.o ABSOLUTE
    ../clib/printf_percent.s                 0x00000000   Number         0  _printf_e.o ABSOLUTE
    ../clib/printf_percent.s                 0x00000000   Number         0  _printf_f.o ABSOLUTE
    ../clib/printf_percent.s                 0x00000000   Number         0  _printf_d.o ABSOLUTE
    ../clib/printf_percent.s                 0x00000000   Number         0  _printf_i.o ABSOLUTE
    ../clib/printf_percent.s                 0x00000000   Number         0  _printf_o.o ABSOLUTE
    ../clib/printf_percent.s                 0x00000000   Number         0  _printf_p.o ABSOLUTE
    ../clib/printf_percent.s                 0x00000000   Number         0  _printf_x.o ABSOLUTE
    ../clib/printf_percent.s                 0x00000000   Number         0  _printf_n.o ABSOLUTE
    ../clib/printf_percent.s                 0x00000000   Number         0  _printf_s.o ABSOLUTE
    ../clib/printf_percent.s                 0x00000000   Number         0  _printf_percent_end.o ABSOLUTE
    ../clib/printf_percent.s                 0x00000000   Number         0  _printf_c.o ABSOLUTE
    ../clib/printf_percent.s                 0x00000000   Number         0  _printf_u.o ABSOLUTE
    ../clib/printf_percent.s                 0x00000000   Number         0  _printf_llx.o ABSOLUTE
    ../clib/printf_percent.s                 0x00000000   Number         0  _printf_llo.o ABSOLUTE
    ../clib/printf_percent.s                 0x00000000   Number         0  _printf_ls.o ABSOLUTE
    ../clib/printf_percent.s                 0x00000000   Number         0  _printf_lc.o ABSOLUTE
    ../clib/printf_percent.s                 0x00000000   Number         0  _printf_l.o ABSOLUTE
    ../clib/printf_percent.s                 0x00000000   Number         0  _printf_ll.o ABSOLUTE
    ../clib/printf_percent.s                 0x00000000   Number         0  _printf_llu.o ABSOLUTE
    ../clib/printf_percent.s                 0x00000000   Number         0  _printf_lld.o ABSOLUTE
    ../clib/printf_percent.s                 0x00000000   Number         0  _printf_lli.o ABSOLUTE
    ../clib/printf_percent.s                 0x00000000   Number         0  _printf_percent.o ABSOLUTE
    ../clib/printf_percent.s                 0x00000000   Number         0  _printf_a.o ABSOLUTE
    ../clib/printf_percent.s                 0x00000000   Number         0  _printf_g.o ABSOLUTE
    ../clib/scanf.c                          0x00000000   Number         0  _scanf.o ABSOLUTE
    ../clib/scanf.c                          0x00000000   Number         0  _sgetc.o ABSOLUTE
    ../clib/scanf.c                          0x00000000   Number         0  scanf_char.o ABSOLUTE
    ../clib/scanf.c                          0x00000000   Number         0  _chval.o ABSOLUTE
    ../clib/scanf.c                          0x00000000   Number         0  _scanf_str.o ABSOLUTE
    ../clib/scanf.c                          0x00000000   Number         0  _scanf_int.o ABSOLUTE
    ../clib/scanf.c                          0x00000000   Number         0  __0sscanf.o ABSOLUTE
    ../clib/signal.c                         0x00000000   Number         0  defsig_rtred_inner.o ABSOLUTE
    ../clib/signal.c                         0x00000000   Number         0  defsig_other.o ABSOLUTE
    ../clib/signal.c                         0x00000000   Number         0  defsig_segv_inner.o ABSOLUTE
    ../clib/signal.c                         0x00000000   Number         0  defsig_cppl_inner.o ABSOLUTE
    ../clib/signal.c                         0x00000000   Number         0  defsig_pvfn_inner.o ABSOLUTE
    ../clib/signal.c                         0x00000000   Number         0  defsig_stak_inner.o ABSOLUTE
    ../clib/signal.c                         0x00000000   Number         0  defsig_rtmem_formal.o ABSOLUTE
    ../clib/signal.c                         0x00000000   Number         0  defsig_abrt_inner.o ABSOLUTE
    ../clib/signal.c                         0x00000000   Number         0  defsig_fpe_outer.o ABSOLUTE
    ../clib/signal.c                         0x00000000   Number         0  defsig_fpe_formal.o ABSOLUTE
    ../clib/signal.c                         0x00000000   Number         0  defsig_exit.o ABSOLUTE
    ../clib/signal.c                         0x00000000   Number         0  defsig_fpe_inner.o ABSOLUTE
    ../clib/signal.c                         0x00000000   Number         0  defsig_rtmem_inner.o ABSOLUTE
    ../clib/signal.c                         0x00000000   Number         0  defsig_general.o ABSOLUTE
    ../clib/signal.c                         0x00000000   Number         0  __raise.o ABSOLUTE
    ../clib/signal.c                         0x00000000   Number         0  defsig_rtmem_outer.o ABSOLUTE
    ../clib/signal.s                         0x00000000   Number         0  defsig.o ABSOLUTE
    ../clib/stdlib.c                         0x00000000   Number         0  exit.o ABSOLUTE
    ../clib/string.c                         0x00000000   Number         0  strncmp.o ABSOLUTE
    ../clib/string.c                         0x00000000   Number         0  strlen.o ABSOLUTE
    ../clib/string.c                         0x00000000   Number         0  strstr.o ABSOLUTE
    ../clib/string.c                         0x00000000   Number         0  strcmp.o ABSOLUTE
    ../fplib/cfplib/fpinit.c                 0x00000000   Number         0  fpinit.o ABSOLUTE
    ../fplib/cfplib/ieee_status.c            0x00000000   Number         0  ieee_status.o ABSOLUTE
    ../fplib/printf1.s                       0x00000000   Number         0  printf1.o ABSOLUTE
    ../fplib/usenofp.s                       0x00000000   Number         0  usenofp.o ABSOLUTE
    ../mathlib/fpclassify.c                  0x00000000   Number         0  fpclassify.o ABSOLUTE
    API.cpp                                  0x00000000   Number         0  api.o ABSOLUTE
    API.cpp                                  0x00000000   Number         0  api.o ABSOLUTE
    C:\Users\zaka\AppData\Local\Arm\Packs\ARM\CMSIS-FreeRTOS\10.4.6\CMSIS\RTOS2\FreeRTOS\Source\ARM\clib_arm.c 0x00000000   Number         0  clib_arm.o ABSOLUTE
    C:\Users\zaka\AppData\Local\Arm\Packs\ARM\CMSIS-FreeRTOS\10.4.6\CMSIS\RTOS2\FreeRTOS\Source\cmsis_os2.c 0x00000000   Number         0  cmsis_os2.o ABSOLUTE
    C:\Users\zaka\AppData\Local\Arm\Packs\ARM\CMSIS-FreeRTOS\10.4.6\CMSIS\RTOS2\FreeRTOS\Source\freertos_evr.c 0x00000000   Number         0  freertos_evr.o ABSOLUTE
    C:\Users\zaka\AppData\Local\Arm\Packs\ARM\CMSIS-FreeRTOS\10.4.6\CMSIS\RTOS2\FreeRTOS\Source\os_systick.c 0x00000000   Number         0  os_systick.o ABSOLUTE
    C:\Users\zaka\AppData\Local\Arm\Packs\ARM\CMSIS-FreeRTOS\10.4.6\Source\croutine.c 0x00000000   Number         0  croutine.o ABSOLUTE
    C:\Users\zaka\AppData\Local\Arm\Packs\ARM\CMSIS-FreeRTOS\10.4.6\Source\event_groups.c 0x00000000   Number         0  event_groups.o ABSOLUTE
    C:\Users\zaka\AppData\Local\Arm\Packs\ARM\CMSIS-FreeRTOS\10.4.6\Source\list.c 0x00000000   Number         0  list.o ABSOLUTE
    C:\Users\zaka\AppData\Local\Arm\Packs\ARM\CMSIS-FreeRTOS\10.4.6\Source\portable\MemMang\heap_4.c 0x00000000   Number         0  heap_4.o ABSOLUTE
    C:\Users\zaka\AppData\Local\Arm\Packs\ARM\CMSIS-FreeRTOS\10.4.6\Source\portable\RVDS\ARM_CM0\port.c 0x00000000   Number         0  port.o ABSOLUTE
    C:\Users\zaka\AppData\Local\Arm\Packs\ARM\CMSIS-FreeRTOS\10.4.6\Source\queue.c 0x00000000   Number         0  queue.o ABSOLUTE
    C:\Users\zaka\AppData\Local\Arm\Packs\ARM\CMSIS-FreeRTOS\10.4.6\Source\stream_buffer.c 0x00000000   Number         0  stream_buffer.o ABSOLUTE
    C:\Users\zaka\AppData\Local\Arm\Packs\ARM\CMSIS-FreeRTOS\10.4.6\Source\tasks.c 0x00000000   Number         0  tasks.o ABSOLUTE
    C:\Users\zaka\AppData\Local\Arm\Packs\ARM\CMSIS-FreeRTOS\10.4.6\Source\timers.c 0x00000000   Number         0  timers.o ABSOLUTE
    C:\\Users\\zaka\\AppData\\Local\\Arm\\Packs\\ARM\\CMSIS-FreeRTOS\\10.4.6\\CMSIS\\RTOS2\\FreeRTOS\\Source\\ARM\\clib_arm.c 0x00000000   Number         0  clib_arm.o ABSOLUTE
    C:\\Users\\zaka\\AppData\\Local\\Arm\\Packs\\ARM\\CMSIS-FreeRTOS\\10.4.6\\CMSIS\\RTOS2\\FreeRTOS\\Source\\cmsis_os2.c 0x00000000   Number         0  cmsis_os2.o ABSOLUTE
    C:\\Users\\zaka\\AppData\\Local\\Arm\\Packs\\ARM\\CMSIS-FreeRTOS\\10.4.6\\CMSIS\\RTOS2\\FreeRTOS\\Source\\freertos_evr.c 0x00000000   Number         0  freertos_evr.o ABSOLUTE
    C:\\Users\\zaka\\AppData\\Local\\Arm\\Packs\\ARM\\CMSIS-FreeRTOS\\10.4.6\\CMSIS\\RTOS2\\FreeRTOS\\Source\\os_systick.c 0x00000000   Number         0  os_systick.o ABSOLUTE
    C:\\Users\\zaka\\AppData\\Local\\Arm\\Packs\\ARM\\CMSIS-FreeRTOS\\10.4.6\\Source\\croutine.c 0x00000000   Number         0  croutine.o ABSOLUTE
    C:\\Users\\zaka\\AppData\\Local\\Arm\\Packs\\ARM\\CMSIS-FreeRTOS\\10.4.6\\Source\\event_groups.c 0x00000000   Number         0  event_groups.o ABSOLUTE
    C:\\Users\\zaka\\AppData\\Local\\Arm\\Packs\\ARM\\CMSIS-FreeRTOS\\10.4.6\\Source\\list.c 0x00000000   Number         0  list.o ABSOLUTE
    C:\\Users\\zaka\\AppData\\Local\\Arm\\Packs\\ARM\\CMSIS-FreeRTOS\\10.4.6\\Source\\portable\\MemMang\\heap_4.c 0x00000000   Number         0  heap_4.o ABSOLUTE
    C:\\Users\\zaka\\AppData\\Local\\Arm\\Packs\\ARM\\CMSIS-FreeRTOS\\10.4.6\\Source\\portable\\RVDS\\ARM_CM0\\port.c 0x00000000   Number         0  port.o ABSOLUTE
    C:\\Users\\zaka\\AppData\\Local\\Arm\\Packs\\ARM\\CMSIS-FreeRTOS\\10.4.6\\Source\\queue.c 0x00000000   Number         0  queue.o ABSOLUTE
    C:\\Users\\zaka\\AppData\\Local\\Arm\\Packs\\ARM\\CMSIS-FreeRTOS\\10.4.6\\Source\\stream_buffer.c 0x00000000   Number         0  stream_buffer.o ABSOLUTE
    C:\\Users\\zaka\\AppData\\Local\\Arm\\Packs\\ARM\\CMSIS-FreeRTOS\\10.4.6\\Source\\tasks.c 0x00000000   Number         0  tasks.o ABSOLUTE
    C:\\Users\\zaka\\AppData\\Local\\Arm\\Packs\\ARM\\CMSIS-FreeRTOS\\10.4.6\\Source\\timers.c 0x00000000   Number         0  timers.o ABSOLUTE
    DMA.cpp                                  0x00000000   Number         0  dma.o ABSOLUTE
    RTC.cpp                                  0x00000000   Number         0  rtc.o ABSOLUTE
    RTC.cpp                                  0x00000000   Number         0  rtc.o ABSOLUTE
    RTE\Device\ATSAML21G18B\startup_saml21g18b.s 0x00000000   Number         0  startup_saml21g18b.o ABSOLUTE
    RTE\Device\ATSAML21G18B\system_saml21g18b.c 0x00000000   Number         0  system_saml21g18b.o ABSOLUTE
    RTE\\Device\\ATSAML21G18B\\system_saml21g18b.c 0x00000000   Number         0  system_saml21g18b.o ABSOLUTE
    SERCOM.cpp                               0x00000000   Number         0  sercom.o ABSOLUTE
    SERCOM.cpp                               0x00000000   Number         0  sercom.o ABSOLUTE
    SendingData.cpp                          0x00000000   Number         0  sendingdata.o ABSOLUTE
    SendingData.cpp                          0x00000000   Number         0  sendingdata.o ABSOLUTE
    bluetooth.cpp                            0x00000000   Number         0  bluetooth.o ABSOLUTE
    bluetooth.cpp                            0x00000000   Number         0  bluetooth.o ABSOLUTE
    dc.s                                     0x00000000   Number         0  dc.o ABSOLUTE
    gsm_usart.cpp                            0x00000000   Number         0  gsm_usart.o ABSOLUTE
    gsm_usart.cpp                            0x00000000   Number         0  gsm_usart.o ABSOLUTE
    main.cpp                                 0x00000000   Number         0  main.o ABSOLUTE
    main.cpp                                 0x00000000   Number         0  main.o ABSOLUTE
    system_setup.cpp                         0x00000000   Number         0  system_setup.o ABSOLUTE
    system_setup.cpp                         0x00000000   Number         0  system_setup.o ABSOLUTE
    !!!main                                  0x000000b0   Section        8  __main.o(!!!main)
    !!!scatter                               0x000000b8   Section       60  __scatter.o(!!!scatter)
    !!handler_zi                             0x000000f4   Section       28  __scatter_zi.o(!!handler_zi)
    .ARM.Collect$$_printf_percent$$00000000  0x00000110   Section        2  _printf_percent.o(.ARM.Collect$$_printf_percent$$00000000)
    .ARM.Collect$$_printf_percent$$00000001  0x00000112   Section       10  _printf_n.o(.ARM.Collect$$_printf_percent$$00000001)
    .ARM.Collect$$_printf_percent$$00000002  0x0000011c   Section       10  _printf_p.o(.ARM.Collect$$_printf_percent$$00000002)
    .ARM.Collect$$_printf_percent$$00000003  0x00000126   Section       10  _printf_f.o(.ARM.Collect$$_printf_percent$$00000003)
    .ARM.Collect$$_printf_percent$$00000004  0x00000130   Section       10  _printf_e.o(.ARM.Collect$$_printf_percent$$00000004)
    .ARM.Collect$$_printf_percent$$00000005  0x0000013a   Section       10  _printf_g.o(.ARM.Collect$$_printf_percent$$00000005)
    .ARM.Collect$$_printf_percent$$00000006  0x00000144   Section       10  _printf_a.o(.ARM.Collect$$_printf_percent$$00000006)
    .ARM.Collect$$_printf_percent$$00000007  0x0000014e   Section       10  _printf_ll.o(.ARM.Collect$$_printf_percent$$00000007)
    .ARM.Collect$$_printf_percent$$00000008  0x00000158   Section       10  _printf_i.o(.ARM.Collect$$_printf_percent$$00000008)
    .ARM.Collect$$_printf_percent$$00000009  0x00000162   Section       10  _printf_d.o(.ARM.Collect$$_printf_percent$$00000009)
    .ARM.Collect$$_printf_percent$$0000000A  0x0000016c   Section       10  _printf_u.o(.ARM.Collect$$_printf_percent$$0000000A)
    .ARM.Collect$$_printf_percent$$0000000B  0x00000176   Section       10  _printf_o.o(.ARM.Collect$$_printf_percent$$0000000B)
    .ARM.Collect$$_printf_percent$$0000000C  0x00000180   Section       10  _printf_x.o(.ARM.Collect$$_printf_percent$$0000000C)
    .ARM.Collect$$_printf_percent$$0000000D  0x0000018a   Section       10  _printf_lli.o(.ARM.Collect$$_printf_percent$$0000000D)
    .ARM.Collect$$_printf_percent$$0000000E  0x00000194   Section       10  _printf_lld.o(.ARM.Collect$$_printf_percent$$0000000E)
    .ARM.Collect$$_printf_percent$$0000000F  0x0000019e   Section       10  _printf_llu.o(.ARM.Collect$$_printf_percent$$0000000F)
    .ARM.Collect$$_printf_percent$$00000010  0x000001a8   Section       10  _printf_llo.o(.ARM.Collect$$_printf_percent$$00000010)
    .ARM.Collect$$_printf_percent$$00000011  0x000001b2   Section       10  _printf_llx.o(.ARM.Collect$$_printf_percent$$00000011)
    .ARM.Collect$$_printf_percent$$00000012  0x000001bc   Section       10  _printf_l.o(.ARM.Collect$$_printf_percent$$00000012)
    .ARM.Collect$$_printf_percent$$00000013  0x000001c6   Section       10  _printf_c.o(.ARM.Collect$$_printf_percent$$00000013)
    .ARM.Collect$$_printf_percent$$00000014  0x000001d0   Section       10  _printf_s.o(.ARM.Collect$$_printf_percent$$00000014)
    .ARM.Collect$$_printf_percent$$00000015  0x000001da   Section       10  _printf_lc.o(.ARM.Collect$$_printf_percent$$00000015)
    .ARM.Collect$$_printf_percent$$00000016  0x000001e4   Section       10  _printf_ls.o(.ARM.Collect$$_printf_percent$$00000016)
    .ARM.Collect$$_printf_percent$$00000017  0x000001ee   Section        4  _printf_percent_end.o(.ARM.Collect$$_printf_percent$$00000017)
    .ARM.Collect$$libinit$$00000000          0x000001f2   Section        2  libinit.o(.ARM.Collect$$libinit$$00000000)
    .ARM.Collect$$libinit$$00000002          0x000001f4   Section        0  libinit2.o(.ARM.Collect$$libinit$$00000002)
    .ARM.Collect$$libinit$$00000004          0x000001f4   Section        0  libinit2.o(.ARM.Collect$$libinit$$00000004)
    .ARM.Collect$$libinit$$0000000A          0x000001f4   Section        0  libinit2.o(.ARM.Collect$$libinit$$0000000A)
    .ARM.Collect$$libinit$$0000000C          0x000001f4   Section        0  libinit2.o(.ARM.Collect$$libinit$$0000000C)
    .ARM.Collect$$libinit$$0000000E          0x000001f4   Section        0  libinit2.o(.ARM.Collect$$libinit$$0000000E)
    .ARM.Collect$$libinit$$0000000F          0x000001f4   Section        6  libinit2.o(.ARM.Collect$$libinit$$0000000F)
    .ARM.Collect$$libinit$$00000011          0x000001fa   Section        0  libinit2.o(.ARM.Collect$$libinit$$00000011)
    .ARM.Collect$$libinit$$00000012          0x000001fa   Section       12  libinit2.o(.ARM.Collect$$libinit$$00000012)
    .ARM.Collect$$libinit$$00000013          0x00000206   Section        0  libinit2.o(.ARM.Collect$$libinit$$00000013)
    .ARM.Collect$$libinit$$00000015          0x00000206   Section        0  libinit2.o(.ARM.Collect$$libinit$$00000015)
    .ARM.Collect$$libinit$$00000016          0x00000206   Section       10  libinit2.o(.ARM.Collect$$libinit$$00000016)
    .ARM.Collect$$libinit$$00000017          0x00000210   Section        0  libinit2.o(.ARM.Collect$$libinit$$00000017)
    .ARM.Collect$$libinit$$00000019          0x00000210   Section        0  libinit2.o(.ARM.Collect$$libinit$$00000019)
    .ARM.Collect$$libinit$$0000001B          0x00000210   Section        0  libinit2.o(.ARM.Collect$$libinit$$0000001B)
    .ARM.Collect$$libinit$$0000001D          0x00000210   Section        0  libinit2.o(.ARM.Collect$$libinit$$0000001D)
    .ARM.Collect$$libinit$$0000001F          0x00000210   Section        0  libinit2.o(.ARM.Collect$$libinit$$0000001F)
    .ARM.Collect$$libinit$$00000021          0x00000210   Section        0  libinit2.o(.ARM.Collect$$libinit$$00000021)
    .ARM.Collect$$libinit$$00000023          0x00000210   Section        0  libinit2.o(.ARM.Collect$$libinit$$00000023)
    .ARM.Collect$$libinit$$00000025          0x00000210   Section        0  libinit2.o(.ARM.Collect$$libinit$$00000025)
    .ARM.Collect$$libinit$$0000002C          0x00000210   Section        0  libinit2.o(.ARM.Collect$$libinit$$0000002C)
    .ARM.Collect$$libinit$$0000002E          0x00000210   Section        0  libinit2.o(.ARM.Collect$$libinit$$0000002E)
    .ARM.Collect$$libinit$$00000030          0x00000210   Section        0  libinit2.o(.ARM.Collect$$libinit$$00000030)
    .ARM.Collect$$libinit$$00000031          0x00000210   Section        4  libinit2.o(.ARM.Collect$$libinit$$00000031)
    .ARM.Collect$$libinit$$00000032          0x00000214   Section        0  libinit2.o(.ARM.Collect$$libinit$$00000032)
    .ARM.Collect$$libinit$$00000033          0x00000214   Section        2  libinit2.o(.ARM.Collect$$libinit$$00000033)
    .ARM.Collect$$libshutdown$$00000000      0x00000216   Section        2  libshutdown.o(.ARM.Collect$$libshutdown$$00000000)
    .ARM.Collect$$libshutdown$$00000002      0x00000218   Section        0  libshutdown2.o(.ARM.Collect$$libshutdown$$00000002)
    .ARM.Collect$$libshutdown$$00000004      0x00000218   Section        0  libshutdown2.o(.ARM.Collect$$libshutdown$$00000004)
    .ARM.Collect$$libshutdown$$00000006      0x00000218   Section        0  libshutdown2.o(.ARM.Collect$$libshutdown$$00000006)
    .ARM.Collect$$libshutdown$$00000009      0x00000218   Section        0  libshutdown2.o(.ARM.Collect$$libshutdown$$00000009)
    .ARM.Collect$$libshutdown$$0000000C      0x00000218   Section        0  libshutdown2.o(.ARM.Collect$$libshutdown$$0000000C)
    .ARM.Collect$$libshutdown$$0000000E      0x00000218   Section        0  libshutdown2.o(.ARM.Collect$$libshutdown$$0000000E)
    .ARM.Collect$$libshutdown$$00000011      0x00000218   Section        0  libshutdown2.o(.ARM.Collect$$libshutdown$$00000011)
    .ARM.Collect$$libshutdown$$00000012      0x00000218   Section        2  libshutdown2.o(.ARM.Collect$$libshutdown$$00000012)
    .ARM.Collect$$rtentry$$00000000          0x0000021a   Section        0  __rtentry.o(.ARM.Collect$$rtentry$$00000000)
    .ARM.Collect$$rtentry$$00000002          0x0000021a   Section        0  __rtentry2.o(.ARM.Collect$$rtentry$$00000002)
    .ARM.Collect$$rtentry$$00000004          0x0000021a   Section        6  __rtentry4.o(.ARM.Collect$$rtentry$$00000004)
    .ARM.Collect$$rtentry$$00000008          0x00000220   Section        8  __rtentry2.o(.ARM.Collect$$rtentry$$00000008)
    .ARM.Collect$$rtentry$$0000000A          0x00000228   Section        4  __rtentry2.o(.ARM.Collect$$rtentry$$0000000A)
    .ARM.Collect$$rtentry$$0000000C          0x0000022c   Section        0  __rtentry2.o(.ARM.Collect$$rtentry$$0000000C)
    .ARM.Collect$$rtentry$$0000000D          0x0000022c   Section        8  __rtentry2.o(.ARM.Collect$$rtentry$$0000000D)
    .ARM.Collect$$rtexit$$00000000           0x00000234   Section        2  rtexit.o(.ARM.Collect$$rtexit$$00000000)
    .ARM.Collect$$rtexit$$00000002           0x00000236   Section        0  rtexit2.o(.ARM.Collect$$rtexit$$00000002)
    .ARM.Collect$$rtexit$$00000003           0x00000236   Section        4  rtexit2.o(.ARM.Collect$$rtexit$$00000003)
    .ARM.Collect$$rtexit$$00000004           0x0000023a   Section        6  rtexit2.o(.ARM.Collect$$rtexit$$00000004)
    .emb_text                                0x00000240   Section      120  port.o(.emb_text)
    .emb_text                                0x000002b8   Section       56  rt_memcpy.o(.emb_text)
    .text                                    0x000002f0   Section       56  startup_saml21g18b.o(.text)
    .text                                    0x00000328   Section       16  rt_ctype_table.o(.text)
    .text                                    0x00000338   Section        0  c89vsprintf.o(.text)
    .text                                    0x0000035c   Section        0  __0sscanf.o(.text)
    .text                                    0x0000039c   Section        0  _scanf_int.o(.text)
    .text                                    0x000004e6   Section        0  _scanf_str.o(.text)
    .text                                    0x000005ce   Section        0  strstr.o(.text)
    .text                                    0x000005f8   Section        0  strlen.o(.text)
    .text                                    0x0000063c   Section        0  rt_memcpy.o(.text)
    .text                                    0x000006be   Section        0  aeabi_memset.o(.text)
    .text                                    0x000006d0   Section        0  rt_memclr.o(.text)
    .text                                    0x00000710   Section      346  aeabi_sdiv.o(.text)
    .text                                    0x0000086a   Section        0  heapauxi.o(.text)
    .text                                    0x00000870   Section        0  init_aeabi.o(.text)
    .text                                    0x00000894   Section       10  rt_locale_twolibspace.o(.text)
    .text                                    0x0000089e   Section        0  _printf_pad.o(.text)
    .text                                    0x000008ec   Section        0  _printf_truncate.o(.text)
    .text                                    0x00000910   Section        0  _printf_str.o(.text)
    .text                                    0x00000964   Section        0  _printf_dec.o(.text)
    .text                                    0x000009d0   Section        0  _printf_charcount.o(.text)
    .text                                    0x000009f8   Section        0  _printf_char_common.o(.text)
    _printf_input_char                       0x000009f9   Thumb Code    10  _printf_char_common.o(.text)
    .text                                    0x00000a28   Section        0  _sputc.o(.text)
    .text                                    0x00000a34   Section        0  _printf_wctomb.o(.text)
    .text                                    0x00000af0   Section        0  _printf_longlong_dec.o(.text)
    .text                                    0x00000b60   Section        0  _printf_oct_int_ll.o(.text)
    _printf_longlong_oct_internal            0x00000b61   Thumb Code     0  _printf_oct_int_ll.o(.text)
    .text                                    0x00000bd0   Section        0  _printf_hex_int_ll_ptr.o(.text)
    _printf_hex_common                       0x00000bd1   Thumb Code     0  _printf_hex_int_ll_ptr.o(.text)
    .text                                    0x00000c68   Section        0  __printf_flags_ss_wp.o(.text)
    .text                                    0x00000df0   Section        0  _chval.o(.text)
    .text                                    0x00000e10   Section        0  scanf_char.o(.text)
    _scanf_char_input                        0x00000e11   Thumb Code    12  scanf_char.o(.text)
    .text                                    0x00000e40   Section        0  _sgetc.o(.text)
    .text                                    0x00000e84   Section        8  libspace.o(.text)
    .text                                    0x00000e8c   Section        0  lludiv10.o(.text)
    .text                                    0x00000f06   Section        0  isspace.o(.text)
    .text                                    0x00000f18   Section        0  _printf_intcommon.o(.text)
    .text                                    0x00000fc8   Section        0  _printf_fp_dec.o(.text)
    _fp_digits                               0x00000fcb   Thumb Code   412  _printf_fp_dec.o(.text)
    .text                                    0x000013e0   Section        0  _printf_char.o(.text)
    .text                                    0x0000140e   Section        0  _printf_wchar.o(.text)
    .text                                    0x0000143c   Section        0  _scanf.o(.text)
    .text                                    0x000017d0   Section        0  _wcrtomb.o(.text)
    .text                                    0x00001810   Section        0  strcmp.o(.text)
    .text                                    0x00001898   Section        0  rtudiv10.o(.text)
    .text                                    0x000018c0   Section       62  sys_stackheap_outer.o(.text)
    .text                                    0x00001900   Section        0  _printf_fp_infnan.o(.text)
    .text                                    0x00001988   Section        0  bigflt0.o(.text)
    .text                                    0x00001a60   Section        0  btod.o(.text)
    btod_internal_mul                        0x00001aa1   Thumb Code   492  btod.o(.text)
    btod_internal_div                        0x00001c8d   Thumb Code   520  btod.o(.text)
    .text                                    0x00001fe0   Section        0  exit.o(.text)
    .text                                    0x00001ff0   Section        0  sys_exit.o(.text)
    .text                                    0x00001ffc   Section        2  use_no_semi.o(.text)
    .text                                    0x00001ffe   Section        0  indicate_semi.o(.text)
    .text                                    0x00001ffe   Section        0  __dclz77c.o(.text)
    i.SERCOM0_Handler                        0x00002060   Section        0  main.o(i.SERCOM0_Handler)
    i.SERCOM1_Handler                        0x0000215c   Section        0  main.o(i.SERCOM1_Handler)
    i.SERCOM2_Handler                        0x0000218c   Section        0  main.o(i.SERCOM2_Handler)
    i.SVC_Handler                            0x00002238   Section        0  port.o(i.SVC_Handler)
    i.SysTick_Handler                        0x0000223c   Section        0  cmsis_os2.o(i.SysTick_Handler)
    i.SystemInit                             0x00002254   Section        0  system_saml21g18b.o(i.SystemInit)
    i._Z10setupParsePv                       0x00002264   Section        0  main.o(i._Z10setupParsePv)
    i._Z12parseGSMDataPv                     0x00002310   Section        0  gsm_usart.o(i._Z12parseGSMDataPv)
    i._Z12setup_systemv                      0x00002410   Section        0  system_setup.o(i._Z12setup_systemv)
    i._Z12verifyPackettPht                   0x000025d4   Section        0  main.o(i._Z12verifyPackettPht)
    i._Z14bluetoothParsePv                   0x00002604   Section        0  bluetooth.o(i._Z14bluetoothParsePv)
    i._Z16isValidIPAddressPKc                0x00002630   Section        0  gsm_usart.o(i._Z16isValidIPAddressPKc)
    i._Z18parseSmartmeshDataPv               0x000026c8   Section        0  main.o(i._Z18parseSmartmeshDataPv)
    i._Z8gsmParsePv                          0x00002824   Section        0  gsm_usart.o(i._Z8gsmParsePv)
    i._Z9setup_rtcv                          0x00002864   Section        0  rtc.o(i._Z9setup_rtcv)
    i._ZN13Smartmesh_API11init_packetEhh     0x00002866   Section        0  api.o(i._ZN13Smartmesh_API11init_packetEhh)
    i._ZN13Smartmesh_API12checksumDataEtPht  0x00002888   Section        0  api.o(i._ZN13Smartmesh_API12checksumDataEtPht)
    i._ZN13Smartmesh_API12resetManagerEv     0x000028b8   Section        0  api.o(i._ZN13Smartmesh_API12resetManagerEv)
    i._ZN13Smartmesh_API12verifyPacketEtPht  0x000028ec   Section        0  api.o(i._ZN13Smartmesh_API12verifyPacketEtPht)
    i._ZN13Smartmesh_API16parseNetworkInfoEP12network_infoPh 0x00002920   Section        0  api.o(i._ZN13Smartmesh_API16parseNetworkInfoEP12network_infoPh)
    i._ZN13Smartmesh_API8mgr_initEv          0x000029d8   Section        0  api.o(i._ZN13Smartmesh_API8mgr_initEv)
    i._ZN13Smartmesh_API9subscribeEjj        0x00002a14   Section        0  api.o(i._ZN13Smartmesh_API9subscribeEjj)
    i._ZN13Smartmesh_APIC1EP4UART            0x00002a58   Section        0  api.o(i._ZN13Smartmesh_APIC1EP4UART)
    i._ZN4UART10send_arrayEPhh               0x00002a64   Section        0  sercom.o(i._ZN4UART10send_arrayEPhh)
    i._ZN4UART7_printfEPKcz                  0x00002abc   Section        0  sercom.o(i._ZN4UART7_printfEPKcz)
    i._ZN4UARTC1EP18sercom_registers_ti      0x00002b3c   Section        0  sercom.o(i._ZN4UARTC1EP18sercom_registers_ti)
    i.__ARM_common_ll_muluu                  0x00002c38   Section        0  btod.o(i.__ARM_common_ll_muluu)
    i.__ARM_common_switch8                   0x00002c68   Section        0  cmsis_os2.o(i.__ARM_common_switch8)
    i.__ARM_fpclassify                       0x00002c84   Section        0  fpclassify.o(i.__ARM_fpclassify)
    i.__sti___8_main_cpp_982d444f            0x00002cb0   Section        0  main.o(i.__sti___8_main_cpp_982d444f)
    __sti___8_main_cpp_982d444f              0x00002cb1   Thumb Code   174  main.o(i.__sti___8_main_cpp_982d444f)
    i._is_digit                              0x00002d70   Section        0  __printf_wp.o(i._is_digit)
    i._mutex_acquire                         0x00002d7e   Section        0  clib_arm.o(i._mutex_acquire)
    __tagsym$$used                           0x00002d7f   Number         0  clib_arm.o(i._mutex_acquire)
    i._mutex_free                            0x00002d98   Section        0  clib_arm.o(i._mutex_free)
    __tagsym$$used                           0x00002d99   Number         0  clib_arm.o(i._mutex_free)
    i._mutex_initialize                      0x00002dc4   Section        0  clib_arm.o(i._mutex_initialize)
    __tagsym$$used                           0x00002dc5   Number         0  clib_arm.o(i._mutex_initialize)
    i._mutex_release                         0x00002e1c   Section        0  clib_arm.o(i._mutex_release)
    __tagsym$$used                           0x00002e1d   Number         0  clib_arm.o(i._mutex_release)
    i._platform_post_stackheap_init          0x00002e36   Section        0  clib_arm.o(i._platform_post_stackheap_init)
    i.main                                   0x00002e38   Section        0  main.o(i.main)
    i.os_kernel_is_active                    0x00002f3c   Section        0  clib_arm.o(i.os_kernel_is_active)
    os_kernel_is_active                      0x00002f3d   Thumb Code    18  clib_arm.o(i.os_kernel_is_active)
    i.prvAddCurrentTaskToDelayedList         0x00002f50   Section        0  tasks.o(i.prvAddCurrentTaskToDelayedList)
    prvAddCurrentTaskToDelayedList           0x00002f51   Thumb Code   108  tasks.o(i.prvAddCurrentTaskToDelayedList)
    i.prvAddNewTaskToReadyList               0x00002fc4   Section        0  tasks.o(i.prvAddNewTaskToReadyList)
    prvAddNewTaskToReadyList                 0x00002fc5   Thumb Code   140  tasks.o(i.prvAddNewTaskToReadyList)
    i.prvCheckForValidListAndQueue           0x00003058   Section        0  timers.o(i.prvCheckForValidListAndQueue)
    prvCheckForValidListAndQueue             0x00003059   Thumb Code    64  timers.o(i.prvCheckForValidListAndQueue)
    i.prvCheckTasksWaitingTermination        0x000030a0   Section        0  tasks.o(i.prvCheckTasksWaitingTermination)
    prvCheckTasksWaitingTermination          0x000030a1   Thumb Code    52  tasks.o(i.prvCheckTasksWaitingTermination)
    i.prvCopyDataFromQueue                   0x000030dc   Section        0  queue.o(i.prvCopyDataFromQueue)
    prvCopyDataFromQueue                     0x000030dd   Thumb Code    36  queue.o(i.prvCopyDataFromQueue)
    i.prvCopyDataToQueue                     0x00003100   Section        0  queue.o(i.prvCopyDataToQueue)
    prvCopyDataToQueue                       0x00003101   Thumb Code   112  queue.o(i.prvCopyDataToQueue)
    i.prvDeleteTCB                           0x00003170   Section        0  tasks.o(i.prvDeleteTCB)
    prvDeleteTCB                             0x00003171   Thumb Code    46  tasks.o(i.prvDeleteTCB)
    i.prvGetDisinheritPriorityAfterTimeout   0x0000319e   Section        0  queue.o(i.prvGetDisinheritPriorityAfterTimeout)
    prvGetDisinheritPriorityAfterTimeout     0x0000319f   Thumb Code    20  queue.o(i.prvGetDisinheritPriorityAfterTimeout)
    i.prvGetNextExpireTime                   0x000031b4   Section        0  timers.o(i.prvGetNextExpireTime)
    prvGetNextExpireTime                     0x000031b5   Thumb Code    32  timers.o(i.prvGetNextExpireTime)
    i.prvHeapInit                            0x000031d8   Section        0  heap_4.o(i.prvHeapInit)
    prvHeapInit                              0x000031d9   Thumb Code    66  heap_4.o(i.prvHeapInit)
    i.prvIdleTask                            0x00003224   Section        0  tasks.o(i.prvIdleTask)
    prvIdleTask                              0x00003225   Thumb Code    18  tasks.o(i.prvIdleTask)
    i.prvInitialiseMutex                     0x0000323c   Section        0  queue.o(i.prvInitialiseMutex)
    prvInitialiseMutex                       0x0000323d   Thumb Code    26  queue.o(i.prvInitialiseMutex)
    i.prvInitialiseNewQueue                  0x00003256   Section        0  queue.o(i.prvInitialiseNewQueue)
    prvInitialiseNewQueue                    0x00003257   Thumb Code    34  queue.o(i.prvInitialiseNewQueue)
    i.prvInitialiseNewTask                   0x00003278   Section        0  tasks.o(i.prvInitialiseNewTask)
    prvInitialiseNewTask                     0x00003279   Thumb Code   156  tasks.o(i.prvInitialiseNewTask)
    i.prvInitialiseTaskLists                 0x00003314   Section        0  tasks.o(i.prvInitialiseTaskLists)
    prvInitialiseTaskLists                   0x00003315   Thumb Code    72  tasks.o(i.prvInitialiseTaskLists)
    i.prvInsertBlockIntoFreeList             0x00003368   Section        0  heap_4.o(i.prvInsertBlockIntoFreeList)
    prvInsertBlockIntoFreeList               0x00003369   Thumb Code    78  heap_4.o(i.prvInsertBlockIntoFreeList)
    i.prvInsertTimerInActiveList             0x000033bc   Section        0  timers.o(i.prvInsertTimerInActiveList)
    prvInsertTimerInActiveList               0x000033bd   Thumb Code    60  timers.o(i.prvInsertTimerInActiveList)
    i.prvIsQueueEmpty                        0x000033fc   Section        0  queue.o(i.prvIsQueueEmpty)
    prvIsQueueEmpty                          0x000033fd   Thumb Code    28  queue.o(i.prvIsQueueEmpty)
    i.prvIsQueueFull                         0x00003418   Section        0  queue.o(i.prvIsQueueFull)
    prvIsQueueFull                           0x00003419   Thumb Code    30  queue.o(i.prvIsQueueFull)
    i.prvProcessExpiredTimer                 0x00003438   Section        0  timers.o(i.prvProcessExpiredTimer)
    prvProcessExpiredTimer                   0x00003439   Thumb Code    58  timers.o(i.prvProcessExpiredTimer)
    i.prvProcessReceivedCommands             0x00003478   Section        0  timers.o(i.prvProcessReceivedCommands)
    prvProcessReceivedCommands               0x00003479   Thumb Code   232  timers.o(i.prvProcessReceivedCommands)
    i.prvProcessTimerOrBlockTask             0x00003564   Section        0  timers.o(i.prvProcessTimerOrBlockTask)
    prvProcessTimerOrBlockTask               0x00003565   Thumb Code    96  timers.o(i.prvProcessTimerOrBlockTask)
    i.prvReloadTimer                         0x000035c8   Section        0  timers.o(i.prvReloadTimer)
    prvReloadTimer                           0x000035c9   Thumb Code    40  timers.o(i.prvReloadTimer)
    i.prvResetNextTaskUnblockTime            0x000035f0   Section        0  tasks.o(i.prvResetNextTaskUnblockTime)
    prvResetNextTaskUnblockTime              0x000035f1   Thumb Code    28  tasks.o(i.prvResetNextTaskUnblockTime)
    i.prvSampleTimeNow                       0x00003610   Section        0  timers.o(i.prvSampleTimeNow)
    prvSampleTimeNow                         0x00003611   Thumb Code    38  timers.o(i.prvSampleTimeNow)
    i.prvSwitchTimerLists                    0x0000363c   Section        0  timers.o(i.prvSwitchTimerLists)
    prvSwitchTimerLists                      0x0000363d   Thumb Code    38  timers.o(i.prvSwitchTimerLists)
    i.prvTaskExitError                       0x00003668   Section        0  port.o(i.prvTaskExitError)
    prvTaskExitError                         0x00003669   Thumb Code    16  port.o(i.prvTaskExitError)
    i.prvTimerTask                           0x0000367c   Section        0  timers.o(i.prvTimerTask)
    prvTimerTask                             0x0000367d   Thumb Code    20  timers.o(i.prvTimerTask)
    i.prvUnlockQueue                         0x00003690   Section        0  queue.o(i.prvUnlockQueue)
    prvUnlockQueue                           0x00003691   Thumb Code   112  queue.o(i.prvUnlockQueue)
    i.pvPortMalloc                           0x00003700   Section        0  heap_4.o(i.pvPortMalloc)
    i.pvTaskIncrementMutexHeldCount          0x000037cc   Section        0  tasks.o(i.pvTaskIncrementMutexHeldCount)
    i.pxPortInitialiseStack                  0x000037e4   Section        0  port.o(i.pxPortInitialiseStack)
    i.uxListRemove                           0x00003804   Section        0  list.o(i.uxListRemove)
    i.vApplicationGetIdleTaskMemory          0x0000382c   Section        0  cmsis_os2.o(i.vApplicationGetIdleTaskMemory)
    i.vApplicationGetTimerTaskMemory         0x00003840   Section        0  cmsis_os2.o(i.vApplicationGetTimerTaskMemory)
    i.vApplicationStackOverflowHook          0x00003854   Section        0  cmsis_os2.o(i.vApplicationStackOverflowHook)
    i.vListInitialise                        0x00003858   Section        0  list.o(i.vListInitialise)
    i.vListInitialiseItem                    0x0000386e   Section        0  list.o(i.vListInitialiseItem)
    i.vListInsert                            0x00003874   Section        0  list.o(i.vListInsert)
    i.vListInsertEnd                         0x000038a4   Section        0  list.o(i.vListInsertEnd)
    i.vPortEnterCritical                     0x000038bc   Section        0  port.o(i.vPortEnterCritical)
    i.vPortExitCritical                      0x000038d4   Section        0  port.o(i.vPortExitCritical)
    i.vPortFree                              0x000038f0   Section        0  heap_4.o(i.vPortFree)
    i.vPortSetupTimerInterrupt               0x00003938   Section        0  port.o(i.vPortSetupTimerInterrupt)
    i.vPortYield                             0x00003960   Section        0  port.o(i.vPortYield)
    i.vQueueDelete                           0x00003978   Section        0  queue.o(i.vQueueDelete)
    i.vQueueWaitForMessageRestricted         0x00003990   Section        0  queue.o(i.vQueueWaitForMessageRestricted)
    i.vTaskDelay                             0x000039d8   Section        0  tasks.o(i.vTaskDelay)
    i.vTaskDelete                            0x00003a0c   Section        0  tasks.o(i.vTaskDelete)
    i.vTaskInternalSetTimeOutState           0x00003a8c   Section        0  tasks.o(i.vTaskInternalSetTimeOutState)
    i.vTaskMissedYield                       0x00003a9c   Section        0  tasks.o(i.vTaskMissedYield)
    i.vTaskPlaceOnEventList                  0x00003aa8   Section        0  tasks.o(i.vTaskPlaceOnEventList)
    i.vTaskPlaceOnEventListRestricted        0x00003acc   Section        0  tasks.o(i.vTaskPlaceOnEventListRestricted)
    i.vTaskPriorityDisinheritAfterTimeout    0x00003b14   Section        0  tasks.o(i.vTaskPriorityDisinheritAfterTimeout)
    i.vTaskStartScheduler                    0x00003ba4   Section        0  tasks.o(i.vTaskStartScheduler)
    i.vTaskSuspendAll                        0x00003c1c   Section        0  tasks.o(i.vTaskSuspendAll)
    i.vTaskSwitchContext                     0x00003c2c   Section        0  tasks.o(i.vTaskSwitchContext)
    i.xPortStartScheduler                    0x00003cb0   Section        0  port.o(i.xPortStartScheduler)
    i.xPortSysTickHandler                    0x00003ce0   Section        0  port.o(i.xPortSysTickHandler)
    i.xQueueCreateCountingSemaphore          0x00003d04   Section        0  queue.o(i.xQueueCreateCountingSemaphore)
    i.xQueueCreateMutex                      0x00003d24   Section        0  queue.o(i.xQueueCreateMutex)
    i.xQueueCreateMutexStatic                0x00003d3c   Section        0  queue.o(i.xQueueCreateMutexStatic)
    i.xQueueGenericCreate                    0x00003d58   Section        0  queue.o(i.xQueueGenericCreate)
    i.xQueueGenericCreateStatic              0x00003da6   Section        0  queue.o(i.xQueueGenericCreateStatic)
    i.xQueueGenericReset                     0x00003de4   Section        0  queue.o(i.xQueueGenericReset)
    i.xQueueGenericSend                      0x00003e72   Section        0  queue.o(i.xQueueGenericSend)
    i.xQueueGenericSendFromISR               0x00003f8e   Section        0  queue.o(i.xQueueGenericSendFromISR)
    i.xQueueGiveFromISR                      0x00004028   Section        0  queue.o(i.xQueueGiveFromISR)
    i.xQueueReceive                          0x000040a6   Section        0  queue.o(i.xQueueReceive)
    i.xQueueReceiveFromISR                   0x000041ae   Section        0  queue.o(i.xQueueReceiveFromISR)
    i.xQueueSemaphoreTake                    0x00004232   Section        0  queue.o(i.xQueueSemaphoreTake)
    i.xTaskCheckForTimeOut                   0x00004370   Section        0  tasks.o(i.xTaskCheckForTimeOut)
    i.xTaskCreate                            0x000043d4   Section        0  tasks.o(i.xTaskCreate)
    i.xTaskCreateStatic                      0x00004434   Section        0  tasks.o(i.xTaskCreateStatic)
    i.xTaskGetSchedulerState                 0x0000447c   Section        0  tasks.o(i.xTaskGetSchedulerState)
    i.xTaskGetTickCount                      0x0000449c   Section        0  tasks.o(i.xTaskGetTickCount)
    i.xTaskIncrementTick                     0x000044a8   Section        0  tasks.o(i.xTaskIncrementTick)
    i.xTaskPriorityDisinherit                0x000045bc   Section        0  tasks.o(i.xTaskPriorityDisinherit)
    i.xTaskPriorityInherit                   0x00004640   Section        0  tasks.o(i.xTaskPriorityInherit)
    i.xTaskRemoveFromEventList               0x000046d8   Section        0  tasks.o(i.xTaskRemoveFromEventList)
    i.xTaskResumeAll                         0x000047a4   Section        0  tasks.o(i.xTaskResumeAll)
    i.xTimerCreateTimerTask                  0x000048a8   Section        0  timers.o(i.xTimerCreateTimerTask)
    locale$$code                             0x00004908   Section       44  lc_ctype_c.o(locale$$code)
    locale$$code                             0x00004934   Section       44  lc_numeric_c.o(locale$$code)
    x$fpl$printf1                            0x00004960   Section       16  printf1.o(x$fpl$printf1)
    .constdata                               0x00004970   Section        8  _printf_wctomb.o(.constdata)
    x$fpl$usenofp                            0x00004970   Section        0  usenofp.o(x$fpl$usenofp)
    initial_mbstate                          0x00004970   Data           8  _printf_wctomb.o(.constdata)
    .constdata                               0x00004978   Section       40  _printf_hex_int_ll_ptr.o(.constdata)
    uc_hextab                                0x00004978   Data          20  _printf_hex_int_ll_ptr.o(.constdata)
    lc_hextab                                0x0000498c   Data          20  _printf_hex_int_ll_ptr.o(.constdata)
    .constdata                               0x000049a0   Section       17  __printf_flags_ss_wp.o(.constdata)
    maptable                                 0x000049a0   Data          17  __printf_flags_ss_wp.o(.constdata)
    .constdata                               0x000049b4   Section      148  bigflt0.o(.constdata)
    tenpwrs_x                                0x000049b4   Data          60  bigflt0.o(.constdata)
    tenpwrs_i                                0x000049f0   Data          64  bigflt0.o(.constdata)
    locale$$data                             0x00004a68   Section      272  lc_ctype_c.o(locale$$data)
    __lcctype_c_name                         0x00004a6c   Data           2  lc_ctype_c.o(locale$$data)
    __lcctype_c_start                        0x00004a74   Data           0  lc_ctype_c.o(locale$$data)
    locale$$data                             0x00004b78   Section       28  lc_numeric_c.o(locale$$data)
    __lcctype_c_end                          0x00004b78   Data           0  lc_ctype_c.o(locale$$data)
    __lcnum_c_name                           0x00004b7c   Data           2  lc_numeric_c.o(locale$$data)
    __lcnum_c_start                          0x00004b84   Data           0  lc_numeric_c.o(locale$$data)
    __lcnum_c_point                          0x00004b90   Data           0  lc_numeric_c.o(locale$$data)
    __lcnum_c_thousands                      0x00004b92   Data           0  lc_numeric_c.o(locale$$data)
    __lcnum_c_grouping                       0x00004b93   Data           0  lc_numeric_c.o(locale$$data)
    .init_array                              0x00004b94   Section        4  main.o(.init_array)
    __lcnum_c_end                            0x00004b94   Data           0  lc_numeric_c.o(locale$$data)
    .init_array                              0x00004b98   Section        0  init_aeabi.o(.init_array)
    .data                                    0x20000000   Section      588  main.o(.data)
    fcstab                                   0x2000004c   Data         512  main.o(.data)
    .data                                    0x2000024c   Section      512  api.o(.data)
    fcstab                                   0x2000024c   Data         512  api.o(.data)
    .data                                    0x2000044c   Section        4  system_saml21g18b.o(.data)
    .data                                    0x20000450   Section       32  heap_4.o(.data)
    pxEnd                                    0x20000450   Data           4  heap_4.o(.data)
    xFreeBytesRemaining                      0x20000454   Data           4  heap_4.o(.data)
    xMinimumEverFreeBytesRemaining           0x20000458   Data           4  heap_4.o(.data)
    xNumberOfSuccessfulAllocations           0x2000045c   Data           4  heap_4.o(.data)
    xNumberOfSuccessfulFrees                 0x20000460   Data           4  heap_4.o(.data)
    xBlockAllocatedBit                       0x20000464   Data           4  heap_4.o(.data)
    xStart                                   0x20000468   Data           8  heap_4.o(.data)
    .data                                    0x20000470   Section        4  port.o(.data)
    uxCriticalNesting                        0x20000470   Data           4  port.o(.data)
    .data                                    0x20000474   Section       64  tasks.o(.data)
    uxDeletedTasksWaitingCleanUp             0x20000478   Data           4  tasks.o(.data)
    uxCurrentNumberOfTasks                   0x2000047c   Data           4  tasks.o(.data)
    xTickCount                               0x20000480   Data           4  tasks.o(.data)
    uxTopReadyPriority                       0x20000484   Data           4  tasks.o(.data)
    xSchedulerRunning                        0x20000488   Data           4  tasks.o(.data)
    xPendedTicks                             0x2000048c   Data           4  tasks.o(.data)
    xYieldPending                            0x20000490   Data           4  tasks.o(.data)
    xNumOfOverflows                          0x20000494   Data           4  tasks.o(.data)
    uxTaskNumber                             0x20000498   Data           4  tasks.o(.data)
    xNextTaskUnblockTime                     0x2000049c   Data           4  tasks.o(.data)
    xIdleTaskHandle                          0x200004a0   Data           4  tasks.o(.data)
    uxSchedulerSuspended                     0x200004a8   Data           4  tasks.o(.data)
    pxDelayedTaskList                        0x200004ac   Data           4  tasks.o(.data)
    pxOverflowDelayedTaskList                0x200004b0   Data           4  tasks.o(.data)
    .data                                    0x200004b4   Section       20  timers.o(.data)
    xTimerQueue                              0x200004b4   Data           4  timers.o(.data)
    xTimerTaskHandle                         0x200004b8   Data           4  timers.o(.data)
    xLastTime                                0x200004bc   Data           4  timers.o(.data)
    pxCurrentTimerList                       0x200004c0   Data           4  timers.o(.data)
    pxOverflowTimerList                      0x200004c4   Data           4  timers.o(.data)
    .bss                                     0x200004c8   Section      800  main.o(.bss)
    .bss                                     0x200007e8   Section      256  sercom.o(.bss)
    buffer                                   0x200007e8   Data         256  sercom.o(.bss)
    .bss                                     0x200008e8   Section      916  clib_arm.o(.bss)
    os_libspace                              0x200008e8   Data         480  clib_arm.o(.bss)
    os_libspace_id                           0x20000ac8   Data          16  clib_arm.o(.bss)
    clib_mutex_cb                            0x20000ad8   Data         400  clib_arm.o(.bss)
    clib_mutex_id                            0x20000c68   Data          20  clib_arm.o(.bss)
    .bss                                     0x20000c7c   Section     1016  cmsis_os2.o(.bss)
    Idle_TCB                                 0x20000c7c   Data          92  cmsis_os2.o(.bss)
    Idle_Stack                               0x20000cd8   Data         512  cmsis_os2.o(.bss)
    Timer_TCB                                0x20000ed8   Data          92  cmsis_os2.o(.bss)
    Timer_Stack                              0x20000f34   Data         320  cmsis_os2.o(.bss)
    .bss                                     0x20001074   Section    16384  heap_4.o(.bss)
    ucHeap                                   0x20001074   Data       16384  heap_4.o(.bss)
    .bss                                     0x20005074   Section     1220  tasks.o(.bss)
    pxReadyTasksLists                        0x20005074   Data        1120  tasks.o(.bss)
    xDelayedTaskList1                        0x200054d4   Data          20  tasks.o(.bss)
    xDelayedTaskList2                        0x200054e8   Data          20  tasks.o(.bss)
    xPendingReadyList                        0x200054fc   Data          20  tasks.o(.bss)
    xTasksWaitingTermination                 0x20005510   Data          20  tasks.o(.bss)
    xSuspendedTaskList                       0x20005524   Data          20  tasks.o(.bss)
    .bss                                     0x20005538   Section      200  timers.o(.bss)
    xStaticTimerQueue                        0x20005538   Data          80  timers.o(.bss)
    ucStaticTimerQueueStorage                0x20005588   Data          80  timers.o(.bss)
    xActiveTimerList1                        0x200055d8   Data          20  timers.o(.bss)
    xActiveTimerList2                        0x200055ec   Data          20  timers.o(.bss)
    .bss                                     0x20005600   Section       96  libspace.o(.bss)
    HEAP                                     0x20005660   Section     1280  startup_saml21g18b.o(HEAP)
    Heap_Mem                                 0x20005660   Data        1280  startup_saml21g18b.o(HEAP)
    STACK                                    0x20005b60   Section     1280  startup_saml21g18b.o(STACK)
    Stack_Mem                                0x20005b60   Data        1280  startup_saml21g18b.o(STACK)
    __initial_sp                             0x20006060   Data           0  startup_saml21g18b.o(STACK)

    Global Symbols

    Symbol Name                              Value     Ov Type        Size  Object(Section)

    BuildAttributes$$THM_ISAv3M$S$PE$A:L22$X:L11$S22$IEEE1$IW$USESV6$~STKCKD$USESV7$~SHL$OTIME$ROPI$IEEEJ$EBA8$UX$STANDARDLIB$REQ8$PRES8$EABIv2 0x00000000   Number         0  anon$$obj.o ABSOLUTE
    __ARM_use_no_argv                        0x00000000   Number         0  main.o ABSOLUTE
    __Vectors                                0x00000000   Data           4  startup_saml21g18b.o(RESET)
    _printf_flags                            0x00000000   Number         0  printf_stubs.o ABSOLUTE
    _printf_return_value                     0x00000000   Number         0  printf_stubs.o ABSOLUTE
    _printf_sizespec                         0x00000000   Number         0  printf_stubs.o ABSOLUTE
    _printf_widthprec                        0x00000000   Number         0  printf_stubs.o ABSOLUTE
    __ARM_exceptions_init                     - Undefined Weak Reference
    __alloca_initialize                       - Undefined Weak Reference
    __arm_fini_                               - Undefined Weak Reference
    __arm_preinit_                            - Undefined Weak Reference
    __cxa_finalize                            - Undefined Weak Reference
    __sigvec_lookup                           - Undefined Weak Reference
    _atexit_init                              - Undefined Weak Reference
    _call_atexit_fns                          - Undefined Weak Reference
    _clock_init                               - Undefined Weak Reference
    _fp_trap_init                             - Undefined Weak Reference
    _fp_trap_shutdown                         - Undefined Weak Reference
    _get_lc_collate                           - Undefined Weak Reference
    _get_lc_monetary                          - Undefined Weak Reference
    _get_lc_time                              - Undefined Weak Reference
    _getenv_init                              - Undefined Weak Reference
    _handle_redirection                       - Undefined Weak Reference
    _init_alloc                               - Undefined Weak Reference
    _init_user_alloc                          - Undefined Weak Reference
    _initio                                   - Undefined Weak Reference
    _printf_fp_hex                            - Undefined Weak Reference
    _printf_mbtowc                            - Undefined Weak Reference
    _printf_wc                                - Undefined Weak Reference
    _rand_init                                - Undefined Weak Reference
    _scanf_longlong                           - Undefined Weak Reference
    _scanf_mbtowc                             - Undefined Weak Reference
    _scanf_real                               - Undefined Weak Reference
    _scanf_wctomb                             - Undefined Weak Reference
    _scanf_wstring                            - Undefined Weak Reference
    _signal_finish                            - Undefined Weak Reference
    _signal_init                              - Undefined Weak Reference
    _terminate_alloc                          - Undefined Weak Reference
    _terminate_user_alloc                     - Undefined Weak Reference
    _terminateio                              - Undefined Weak Reference
    __Vectors_End                            0x000000b0   Data           0  startup_saml21g18b.o(RESET)
    __Vectors_Size                           0x000000b0   Number         0  startup_saml21g18b.o ABSOLUTE
    __main                                   0x000000b1   Thumb Code     8  __main.o(!!!main)
    __scatterload                            0x000000b9   Thumb Code     0  __scatter.o(!!!scatter)
    __scatterload_rt2                        0x000000b9   Thumb Code    52  __scatter.o(!!!scatter)
    __scatterload_rt2_thumb_only             0x000000b9   Thumb Code     0  __scatter.o(!!!scatter)
    __scatterload_null                       0x000000c9   Thumb Code     0  __scatter.o(!!!scatter)
    __scatterload_zeroinit                   0x000000f5   Thumb Code    28  __scatter_zi.o(!!handler_zi)
    _printf_percent                          0x00000111   Thumb Code     0  _printf_percent.o(.ARM.Collect$$_printf_percent$$00000000)
    _printf_n                                0x00000113   Thumb Code     0  _printf_n.o(.ARM.Collect$$_printf_percent$$00000001)
    _printf_p                                0x0000011d   Thumb Code     0  _printf_p.o(.ARM.Collect$$_printf_percent$$00000002)
    _printf_f                                0x00000127   Thumb Code     0  _printf_f.o(.ARM.Collect$$_printf_percent$$00000003)
    _printf_e                                0x00000131   Thumb Code     0  _printf_e.o(.ARM.Collect$$_printf_percent$$00000004)
    _printf_g                                0x0000013b   Thumb Code     0  _printf_g.o(.ARM.Collect$$_printf_percent$$00000005)
    _printf_a                                0x00000145   Thumb Code     0  _printf_a.o(.ARM.Collect$$_printf_percent$$00000006)
    _printf_ll                               0x0000014f   Thumb Code     0  _printf_ll.o(.ARM.Collect$$_printf_percent$$00000007)
    _printf_i                                0x00000159   Thumb Code     0  _printf_i.o(.ARM.Collect$$_printf_percent$$00000008)
    _printf_d                                0x00000163   Thumb Code     0  _printf_d.o(.ARM.Collect$$_printf_percent$$00000009)
    _printf_u                                0x0000016d   Thumb Code     0  _printf_u.o(.ARM.Collect$$_printf_percent$$0000000A)
    _printf_o                                0x00000177   Thumb Code     0  _printf_o.o(.ARM.Collect$$_printf_percent$$0000000B)
    _printf_x                                0x00000181   Thumb Code     0  _printf_x.o(.ARM.Collect$$_printf_percent$$0000000C)
    _printf_lli                              0x0000018b   Thumb Code     0  _printf_lli.o(.ARM.Collect$$_printf_percent$$0000000D)
    _printf_lld                              0x00000195   Thumb Code     0  _printf_lld.o(.ARM.Collect$$_printf_percent$$0000000E)
    _printf_llu                              0x0000019f   Thumb Code     0  _printf_llu.o(.ARM.Collect$$_printf_percent$$0000000F)
    _printf_llo                              0x000001a9   Thumb Code     0  _printf_llo.o(.ARM.Collect$$_printf_percent$$00000010)
    _printf_llx                              0x000001b3   Thumb Code     0  _printf_llx.o(.ARM.Collect$$_printf_percent$$00000011)
    _printf_l                                0x000001bd   Thumb Code     0  _printf_l.o(.ARM.Collect$$_printf_percent$$00000012)
    _printf_c                                0x000001c7   Thumb Code     0  _printf_c.o(.ARM.Collect$$_printf_percent$$00000013)
    _printf_s                                0x000001d1   Thumb Code     0  _printf_s.o(.ARM.Collect$$_printf_percent$$00000014)
    _printf_lc                               0x000001db   Thumb Code     0  _printf_lc.o(.ARM.Collect$$_printf_percent$$00000015)
    _printf_ls                               0x000001e5   Thumb Code     0  _printf_ls.o(.ARM.Collect$$_printf_percent$$00000016)
    _printf_percent_end                      0x000001ef   Thumb Code     0  _printf_percent_end.o(.ARM.Collect$$_printf_percent$$00000017)
    __rt_lib_init                            0x000001f3   Thumb Code     0  libinit.o(.ARM.Collect$$libinit$$00000000)
    __rt_lib_init_fp_1                       0x000001f5   Thumb Code     0  libinit2.o(.ARM.Collect$$libinit$$00000002)
    __rt_lib_init_heap_1                     0x000001f5   Thumb Code     0  libinit2.o(.ARM.Collect$$libinit$$0000000A)
    __rt_lib_init_lc_common                  0x000001f5   Thumb Code     0  libinit2.o(.ARM.Collect$$libinit$$0000000F)
    __rt_lib_init_preinit_1                  0x000001f5   Thumb Code     0  libinit2.o(.ARM.Collect$$libinit$$00000004)
    __rt_lib_init_rand_1                     0x000001f5   Thumb Code     0  libinit2.o(.ARM.Collect$$libinit$$0000000E)
    __rt_lib_init_user_alloc_1               0x000001f5   Thumb Code     0  libinit2.o(.ARM.Collect$$libinit$$0000000C)
    __rt_lib_init_lc_collate_1               0x000001fb   Thumb Code     0  libinit2.o(.ARM.Collect$$libinit$$00000011)
    __rt_lib_init_lc_ctype_2                 0x000001fb   Thumb Code     0  libinit2.o(.ARM.Collect$$libinit$$00000012)
    __rt_lib_init_lc_ctype_1                 0x00000207   Thumb Code     0  libinit2.o(.ARM.Collect$$libinit$$00000013)
    __rt_lib_init_lc_monetary_1              0x00000207   Thumb Code     0  libinit2.o(.ARM.Collect$$libinit$$00000015)
    __rt_lib_init_lc_numeric_2               0x00000207   Thumb Code     0  libinit2.o(.ARM.Collect$$libinit$$00000016)
    __rt_lib_init_alloca_1                   0x00000211   Thumb Code     0  libinit2.o(.ARM.Collect$$libinit$$0000002E)
    __rt_lib_init_argv_1                     0x00000211   Thumb Code     0  libinit2.o(.ARM.Collect$$libinit$$0000002C)
    __rt_lib_init_atexit_1                   0x00000211   Thumb Code     0  libinit2.o(.ARM.Collect$$libinit$$0000001B)
    __rt_lib_init_clock_1                    0x00000211   Thumb Code     0  libinit2.o(.ARM.Collect$$libinit$$00000021)
    __rt_lib_init_cpp_2                      0x00000211   Thumb Code     0  libinit2.o(.ARM.Collect$$libinit$$00000031)
    __rt_lib_init_exceptions_1               0x00000211   Thumb Code     0  libinit2.o(.ARM.Collect$$libinit$$00000030)
    __rt_lib_init_fp_trap_1                  0x00000211   Thumb Code     0  libinit2.o(.ARM.Collect$$libinit$$0000001F)
    __rt_lib_init_getenv_1                   0x00000211   Thumb Code     0  libinit2.o(.ARM.Collect$$libinit$$00000023)
    __rt_lib_init_lc_numeric_1               0x00000211   Thumb Code     0  libinit2.o(.ARM.Collect$$libinit$$00000017)
    __rt_lib_init_lc_time_1                  0x00000211   Thumb Code     0  libinit2.o(.ARM.Collect$$libinit$$00000019)
    __rt_lib_init_signal_1                   0x00000211   Thumb Code     0  libinit2.o(.ARM.Collect$$libinit$$0000001D)
    __rt_lib_init_stdio_1                    0x00000211   Thumb Code     0  libinit2.o(.ARM.Collect$$libinit$$00000025)
    __rt_lib_init_cpp_1                      0x00000215   Thumb Code     0  libinit2.o(.ARM.Collect$$libinit$$00000032)
    __rt_lib_init_return                     0x00000215   Thumb Code     0  libinit2.o(.ARM.Collect$$libinit$$00000033)
    __rt_lib_shutdown                        0x00000217   Thumb Code     0  libshutdown.o(.ARM.Collect$$libshutdown$$00000000)
    __rt_lib_shutdown_cpp_1                  0x00000219   Thumb Code     0  libshutdown2.o(.ARM.Collect$$libshutdown$$00000004)
    __rt_lib_shutdown_fini_1                 0x00000219   Thumb Code     0  libshutdown2.o(.ARM.Collect$$libshutdown$$00000002)
    __rt_lib_shutdown_fp_trap_1              0x00000219   Thumb Code     0  libshutdown2.o(.ARM.Collect$$libshutdown$$00000009)
    __rt_lib_shutdown_heap_1                 0x00000219   Thumb Code     0  libshutdown2.o(.ARM.Collect$$libshutdown$$00000011)
    __rt_lib_shutdown_return                 0x00000219   Thumb Code     0  libshutdown2.o(.ARM.Collect$$libshutdown$$00000012)
    __rt_lib_shutdown_signal_1               0x00000219   Thumb Code     0  libshutdown2.o(.ARM.Collect$$libshutdown$$0000000C)
    __rt_lib_shutdown_stdio_1                0x00000219   Thumb Code     0  libshutdown2.o(.ARM.Collect$$libshutdown$$00000006)
    __rt_lib_shutdown_user_alloc_1           0x00000219   Thumb Code     0  libshutdown2.o(.ARM.Collect$$libshutdown$$0000000E)
    __rt_entry                               0x0000021b   Thumb Code     0  __rtentry.o(.ARM.Collect$$rtentry$$00000000)
    __rt_entry_presh_1                       0x0000021b   Thumb Code     0  __rtentry2.o(.ARM.Collect$$rtentry$$00000002)
    __rt_entry_sh                            0x0000021b   Thumb Code     0  __rtentry4.o(.ARM.Collect$$rtentry$$00000004)
    __rt_entry_postsh_1                      0x00000221   Thumb Code     0  __rtentry2.o(.ARM.Collect$$rtentry$$00000008)
    __rt_entry_li                            0x00000229   Thumb Code     0  __rtentry2.o(.ARM.Collect$$rtentry$$0000000A)
    __rt_entry_main                          0x0000022d   Thumb Code     0  __rtentry2.o(.ARM.Collect$$rtentry$$0000000D)
    __rt_entry_postli_1                      0x0000022d   Thumb Code     0  __rtentry2.o(.ARM.Collect$$rtentry$$0000000C)
    __rt_exit                                0x00000235   Thumb Code     0  rtexit.o(.ARM.Collect$$rtexit$$00000000)
    __rt_exit_ls                             0x00000237   Thumb Code     0  rtexit2.o(.ARM.Collect$$rtexit$$00000003)
    __rt_exit_prels_1                        0x00000237   Thumb Code     0  rtexit2.o(.ARM.Collect$$rtexit$$00000002)
    __rt_exit_exit                           0x0000023b   Thumb Code     0  rtexit2.o(.ARM.Collect$$rtexit$$00000004)
    __asm___6_port_c_39a90d8d__prvPortStartFirstTask 0x00000241   Thumb Code    36  port.o(.emb_text)
    ulSetInterruptMaskFromISR                0x00000269   Thumb Code     8  port.o(.emb_text)
    vClearInterruptMaskFromISR               0x00000271   Thumb Code     6  port.o(.emb_text)
    PendSV_Handler                           0x00000277   Thumb Code    62  port.o(.emb_text)
    __aeabi_memcpy4                          0x000002b9   Thumb Code    56  rt_memcpy.o(.emb_text)
    __aeabi_memcpy8                          0x000002b9   Thumb Code     0  rt_memcpy.o(.emb_text)
    Reset_Handler                            0x000002f1   Thumb Code     8  startup_saml21g18b.o(.text)
    NonMaskableInt_Handler                   0x000002f9   Thumb Code     2  startup_saml21g18b.o(.text)
    HardFault_Handler                        0x000002fb   Thumb Code     2  startup_saml21g18b.o(.text)
    AC_Handler                               0x00000303   Thumb Code     0  startup_saml21g18b.o(.text)
    ADC_Handler                              0x00000303   Thumb Code     0  startup_saml21g18b.o(.text)
    AES_Handler                              0x00000303   Thumb Code     0  startup_saml21g18b.o(.text)
    DAC_Handler                              0x00000303   Thumb Code     0  startup_saml21g18b.o(.text)
    DMAC_Handler                             0x00000303   Thumb Code     0  startup_saml21g18b.o(.text)
    EIC_Handler                              0x00000303   Thumb Code     0  startup_saml21g18b.o(.text)
    EVSYS_Handler                            0x00000303   Thumb Code     0  startup_saml21g18b.o(.text)
    NVMCTRL_Handler                          0x00000303   Thumb Code     0  startup_saml21g18b.o(.text)
    PTC_Handler                              0x00000303   Thumb Code     0  startup_saml21g18b.o(.text)
    RTC_Handler                              0x00000303   Thumb Code     0  startup_saml21g18b.o(.text)
    SERCOM3_Handler                          0x00000303   Thumb Code     0  startup_saml21g18b.o(.text)
    SERCOM4_Handler                          0x00000303   Thumb Code     0  startup_saml21g18b.o(.text)
    SERCOM5_Handler                          0x00000303   Thumb Code     0  startup_saml21g18b.o(.text)
    SYSTEM_Handler                           0x00000303   Thumb Code     0  startup_saml21g18b.o(.text)
    TC0_Handler                              0x00000303   Thumb Code     0  startup_saml21g18b.o(.text)
    TC1_Handler                              0x00000303   Thumb Code     0  startup_saml21g18b.o(.text)
    TC4_Handler                              0x00000303   Thumb Code     0  startup_saml21g18b.o(.text)
    TCC0_Handler                             0x00000303   Thumb Code     0  startup_saml21g18b.o(.text)
    TCC1_Handler                             0x00000303   Thumb Code     0  startup_saml21g18b.o(.text)
    TCC2_Handler                             0x00000303   Thumb Code     0  startup_saml21g18b.o(.text)
    TRNG_Handler                             0x00000303   Thumb Code     0  startup_saml21g18b.o(.text)
    USB_Handler                              0x00000303   Thumb Code     0  startup_saml21g18b.o(.text)
    WDT_Handler                              0x00000303   Thumb Code     0  startup_saml21g18b.o(.text)
    __user_initial_stackheap                 0x00000305   Thumb Code     0  startup_saml21g18b.o(.text)
    __rt_ctype_table                         0x00000329   Thumb Code    16  rt_ctype_table.o(.text)
    __c89vsprintf                            0x00000339   Thumb Code    32  c89vsprintf.o(.text)
    __0sscanf                                0x0000035d   Thumb Code    54  __0sscanf.o(.text)
    _scanf_int                               0x0000039d   Thumb Code   330  _scanf_int.o(.text)
    _scanf_string                            0x000004e7   Thumb Code   232  _scanf_str.o(.text)
    strstr                                   0x000005cf   Thumb Code    40  strstr.o(.text)
    strlen                                   0x000005f9   Thumb Code    62  strlen.o(.text)
    __aeabi_memcpy                           0x0000063d   Thumb Code   130  rt_memcpy.o(.text)
    __rt_memcpy                              0x0000063d   Thumb Code     0  rt_memcpy.o(.text)
    __aeabi_memset                           0x000006bf   Thumb Code    18  aeabi_memset.o(.text)
    _memset_w                                0x000006d1   Thumb Code    26  rt_memclr.o(.text)
    _memset                                  0x000006eb   Thumb Code    30  rt_memclr.o(.text)
    __aeabi_memclr                           0x00000709   Thumb Code     4  rt_memclr.o(.text)
    __rt_memclr                              0x00000709   Thumb Code     0  rt_memclr.o(.text)
    __aeabi_memclr4                          0x0000070d   Thumb Code     0  rt_memclr.o(.text)
    __aeabi_memclr8                          0x0000070d   Thumb Code     0  rt_memclr.o(.text)
    __rt_memclr_w                            0x0000070d   Thumb Code     4  rt_memclr.o(.text)
    __aeabi_uidiv                            0x00000711   Thumb Code     0  aeabi_sdiv.o(.text)
    __aeabi_uidivmod                         0x00000711   Thumb Code    20  aeabi_sdiv.o(.text)
    __aeabi_idiv                             0x00000725   Thumb Code     0  aeabi_sdiv.o(.text)
    __aeabi_idivmod                          0x00000725   Thumb Code   326  aeabi_sdiv.o(.text)
    __use_two_region_memory                  0x0000086b   Thumb Code     2  heapauxi.o(.text)
    __rt_heap_escrow$2region                 0x0000086d   Thumb Code     2  heapauxi.o(.text)
    __rt_heap_expand$2region                 0x0000086f   Thumb Code     2  heapauxi.o(.text)
    __cpp_initialize__aeabi_                 0x00000871   Thumb Code    26  init_aeabi.o(.text)
    __rt_locale                              0x00000895   Thumb Code    10  rt_locale_twolibspace.o(.text)
    _printf_pre_padding                      0x0000089f   Thumb Code    44  _printf_pad.o(.text)
    _printf_post_padding                     0x000008cb   Thumb Code    34  _printf_pad.o(.text)
    _printf_truncate_signed                  0x000008ed   Thumb Code    18  _printf_truncate.o(.text)
    _printf_truncate_unsigned                0x000008ff   Thumb Code    18  _printf_truncate.o(.text)
    _printf_str                              0x00000911   Thumb Code    82  _printf_str.o(.text)
    _printf_int_dec                          0x00000965   Thumb Code    90  _printf_dec.o(.text)
    _printf_charcount                        0x000009d1   Thumb Code    38  _printf_charcount.o(.text)
    _printf_char_common                      0x00000a03   Thumb Code    32  _printf_char_common.o(.text)
    _sputc                                   0x00000a29   Thumb Code    10  _sputc.o(.text)
    _printf_wctomb                           0x00000a35   Thumb Code   182  _printf_wctomb.o(.text)
    _printf_longlong_dec                     0x00000af1   Thumb Code    94  _printf_longlong_dec.o(.text)
    _printf_longlong_oct                     0x00000b61   Thumb Code    68  _printf_oct_int_ll.o(.text)
    _printf_int_oct                          0x00000ba5   Thumb Code    24  _printf_oct_int_ll.o(.text)
    _printf_ll_oct                           0x00000bbd   Thumb Code    10  _printf_oct_int_ll.o(.text)
    _printf_longlong_hex                     0x00000bd1   Thumb Code    88  _printf_hex_int_ll_ptr.o(.text)
    _printf_int_hex                          0x00000c29   Thumb Code    28  _printf_hex_int_ll_ptr.o(.text)
    _printf_ll_hex                           0x00000c45   Thumb Code    10  _printf_hex_int_ll_ptr.o(.text)
    _printf_hex_ptr                          0x00000c4f   Thumb Code    22  _printf_hex_int_ll_ptr.o(.text)
    __printf                                 0x00000c69   Thumb Code   386  __printf_flags_ss_wp.o(.text)
    _chval                                   0x00000df1   Thumb Code    30  _chval.o(.text)
    __vfscanf_char                           0x00000e1d   Thumb Code    28  scanf_char.o(.text)
    _sgetc                                   0x00000e41   Thumb Code    32  _sgetc.o(.text)
    _sbackspace                              0x00000e61   Thumb Code    36  _sgetc.o(.text)
    __user_libspace                          0x00000e85   Thumb Code     8  libspace.o(.text)
    __user_perproc_libspace                  0x00000e85   Thumb Code     0  libspace.o(.text)
    _ll_udiv10                               0x00000e8d   Thumb Code   122  lludiv10.o(.text)
    isspace                                  0x00000f07   Thumb Code    18  isspace.o(.text)
    _printf_int_common                       0x00000f19   Thumb Code   176  _printf_intcommon.o(.text)
    __lib_sel_fp_printf                      0x00000fc9   Thumb Code     2  _printf_fp_dec.o(.text)
    _printf_fp_dec_real                      0x00001167   Thumb Code   620  _printf_fp_dec.o(.text)
    _printf_cs_common                        0x000013e1   Thumb Code    22  _printf_char.o(.text)
    _printf_char                             0x000013f7   Thumb Code    16  _printf_char.o(.text)
    _printf_string                           0x00001407   Thumb Code     8  _printf_char.o(.text)
    _printf_lcs_common                       0x0000140f   Thumb Code    22  _printf_wchar.o(.text)
    _printf_wchar                            0x00001425   Thumb Code    16  _printf_wchar.o(.text)
    _printf_wstring                          0x00001435   Thumb Code     8  _printf_wchar.o(.text)
    __vfscanf                                0x0000143d   Thumb Code   900  _scanf.o(.text)
    _wcrtomb                                 0x000017d1   Thumb Code    64  _wcrtomb.o(.text)
    strcmp                                   0x00001811   Thumb Code   132  strcmp.o(.text)
    __rt_udiv10                              0x00001899   Thumb Code    40  rtudiv10.o(.text)
    __user_setup_stackheap                   0x000018c1   Thumb Code    62  sys_stackheap_outer.o(.text)
    _printf_fp_infnan                        0x00001901   Thumb Code   120  _printf_fp_infnan.o(.text)
    _btod_etento                             0x00001989   Thumb Code   210  bigflt0.o(.text)
    _btod_d2e                                0x00001a61   Thumb Code    64  btod.o(.text)
    _btod_emul                               0x00001e95   Thumb Code    28  btod.o(.text)
    _btod_emuld                              0x00001eb1   Thumb Code   144  btod.o(.text)
    _btod_ediv                               0x00001f41   Thumb Code    26  btod.o(.text)
    _btod_edivd                              0x00001f5b   Thumb Code   124  btod.o(.text)
    exit                                     0x00001fe1   Thumb Code    16  exit.o(.text)
    _sys_exit                                0x00001ff1   Thumb Code     8  sys_exit.o(.text)
    __I$use$semihosting                      0x00001ffd   Thumb Code     0  use_no_semi.o(.text)
    __use_no_semihosting_swi                 0x00001ffd   Thumb Code     2  use_no_semi.o(.text)
    __decompress                             0x00001fff   Thumb Code     0  __dclz77c.o(.text)
    __decompress2                            0x00001fff   Thumb Code    96  __dclz77c.o(.text)
    __semihosting_library_function           0x00001fff   Thumb Code     0  indicate_semi.o(.text)
    SERCOM0_Handler                          0x00002061   Thumb Code   222  main.o(i.SERCOM0_Handler)
    SERCOM1_Handler                          0x0000215d   Thumb Code    36  main.o(i.SERCOM1_Handler)
    SERCOM2_Handler                          0x0000218d   Thumb Code   142  main.o(i.SERCOM2_Handler)
    SVC_Handler                              0x00002239   Thumb Code     2  port.o(i.SVC_Handler)
    SysTick_Handler                          0x0000223d   Thumb Code    20  cmsis_os2.o(i.SysTick_Handler)
    SystemInit                               0x00002255   Thumb Code     8  system_saml21g18b.o(i.SystemInit)
    setupParse(void*)                        0x00002265   Thumb Code   100  main.o(i._Z10setupParsePv)
    parseGSMData(void*)                      0x00002311   Thumb Code   192  gsm_usart.o(i._Z12parseGSMDataPv)
    setup_system()                           0x00002411   Thumb Code   368  system_setup.o(i._Z12setup_systemv)
    verifyPacket(unsigned short, unsigned char*, unsigned short) 0x000025d5   Thumb Code    40  main.o(i._Z12verifyPackettPht)
    bluetoothParse(void*)                    0x00002605   Thumb Code    32  bluetooth.o(i._Z14bluetoothParsePv)
    isValidIPAddress(const char*)            0x00002631   Thumb Code   132  gsm_usart.o(i._Z16isValidIPAddressPKc)
    parseSmartmeshData(void*)                0x000026c9   Thumb Code   242  main.o(i._Z18parseSmartmeshDataPv)
    gsmParse(void*)                          0x00002825   Thumb Code    38  gsm_usart.o(i._Z8gsmParsePv)
    setup_rtc()                              0x00002865   Thumb Code     2  rtc.o(i._Z9setup_rtcv)
    Smartmesh_API::init_packet(unsigned char, unsigned char) 0x00002867   Thumb Code    34  api.o(i._ZN13Smartmesh_API11init_packetEhh)
    Smartmesh_API::checksumData(unsigned short, unsigned char*, unsigned short) 0x00002889   Thumb Code    44  api.o(i._ZN13Smartmesh_API12checksumDataEtPht)
    Smartmesh_API::resetManager()            0x000028b9   Thumb Code    48  api.o(i._ZN13Smartmesh_API12resetManagerEv)
    Smartmesh_API::verifyPacket(unsigned short, unsigned char*, unsigned short) 0x000028ed   Thumb Code    42  api.o(i._ZN13Smartmesh_API12verifyPacketEtPht)
    Smartmesh_API::parseNetworkInfo(network_info*, unsigned char*) 0x00002921   Thumb Code   178  api.o(i._ZN13Smartmesh_API16parseNetworkInfoEP12network_infoPh)
    Smartmesh_API::mgr_init()                0x000029d9   Thumb Code    54  api.o(i._ZN13Smartmesh_API8mgr_initEv)
    Smartmesh_API::subscribe(unsigned, unsigned) 0x00002a15   Thumb Code    64  api.o(i._ZN13Smartmesh_API9subscribeEjj)
    Smartmesh_API::Smartmesh_API(UART*)      0x00002a59   Thumb Code    12  api.o(i._ZN13Smartmesh_APIC1EP4UART)
    Smartmesh_API::Smartmesh_API__sub_object(UART*) 0x00002a59   Thumb Code     0  api.o(i._ZN13Smartmesh_APIC1EP4UART)
    UART::send_array(unsigned char*, unsigned char) 0x00002a65   Thumb Code    76  sercom.o(i._ZN4UART10send_arrayEPhh)
    UART::_printf(const char*, ...)          0x00002abd   Thumb Code   112  sercom.o(i._ZN4UART7_printfEPKcz)
    UART::UART(sercom_registers_t*, int)     0x00002b3d   Thumb Code   214  sercom.o(i._ZN4UARTC1EP18sercom_registers_ti)
    UART::UART__sub_object(sercom_registers_t*, int) 0x00002b3d   Thumb Code     0  sercom.o(i._ZN4UARTC1EP18sercom_registers_ti)
    __ARM_common_ll_muluu                    0x00002c39   Thumb Code    48  btod.o(i.__ARM_common_ll_muluu)
    __ARM_common_switch8                     0x00002c69   Thumb Code    26  cmsis_os2.o(i.__ARM_common_switch8)
    __ARM_fpclassify                         0x00002c85   Thumb Code    40  fpclassify.o(i.__ARM_fpclassify)
    _is_digit                                0x00002d71   Thumb Code    14  __printf_wp.o(i._is_digit)
    _mutex_acquire                           0x00002d7f   Thumb Code    24  clib_arm.o(i._mutex_acquire)
    _mutex_free                              0x00002d99   Thumb Code    40  clib_arm.o(i._mutex_free)
    _mutex_initialize                        0x00002dc5   Thumb Code    80  clib_arm.o(i._mutex_initialize)
    _mutex_release                           0x00002e1d   Thumb Code    26  clib_arm.o(i._mutex_release)
    _platform_post_stackheap_init            0x00002e37   Thumb Code     2  clib_arm.o(i._platform_post_stackheap_init)
    main                                     0x00002e39   Thumb Code   200  main.o(i.main)
    pvPortMalloc                             0x00003701   Thumb Code   198  heap_4.o(i.pvPortMalloc)
    pvTaskIncrementMutexHeldCount            0x000037cd   Thumb Code    20  tasks.o(i.pvTaskIncrementMutexHeldCount)
    pxPortInitialiseStack                    0x000037e5   Thumb Code    26  port.o(i.pxPortInitialiseStack)
    uxListRemove                             0x00003805   Thumb Code    38  list.o(i.uxListRemove)
    vApplicationGetIdleTaskMemory            0x0000382d   Thumb Code    16  cmsis_os2.o(i.vApplicationGetIdleTaskMemory)
    vApplicationGetTimerTaskMemory           0x00003841   Thumb Code    16  cmsis_os2.o(i.vApplicationGetTimerTaskMemory)
    vApplicationStackOverflowHook            0x00003855   Thumb Code     4  cmsis_os2.o(i.vApplicationStackOverflowHook)
    vListInitialise                          0x00003859   Thumb Code    22  list.o(i.vListInitialise)
    vListInitialiseItem                      0x0000386f   Thumb Code     6  list.o(i.vListInitialiseItem)
    vListInsert                              0x00003875   Thumb Code    48  list.o(i.vListInsert)
    vListInsertEnd                           0x000038a5   Thumb Code    24  list.o(i.vListInsertEnd)
    vPortEnterCritical                       0x000038bd   Thumb Code    20  port.o(i.vPortEnterCritical)
    vPortExitCritical                        0x000038d5   Thumb Code    24  port.o(i.vPortExitCritical)
    vPortFree                                0x000038f1   Thumb Code    68  heap_4.o(i.vPortFree)
    vPortSetupTimerInterrupt                 0x00003939   Thumb Code    32  port.o(i.vPortSetupTimerInterrupt)
    vPortYield                               0x00003961   Thumb Code    18  port.o(i.vPortYield)
    vQueueDelete                             0x00003979   Thumb Code    24  queue.o(i.vQueueDelete)
    vQueueWaitForMessageRestricted           0x00003991   Thumb Code    70  queue.o(i.vQueueWaitForMessageRestricted)
    vTaskDelay                               0x000039d9   Thumb Code    48  tasks.o(i.vTaskDelay)
    vTaskDelete                              0x00003a0d   Thumb Code   118  tasks.o(i.vTaskDelete)
    vTaskInternalSetTimeOutState             0x00003a8d   Thumb Code    12  tasks.o(i.vTaskInternalSetTimeOutState)
    vTaskMissedYield                         0x00003a9d   Thumb Code     8  tasks.o(i.vTaskMissedYield)
    vTaskPlaceOnEventList                    0x00003aa9   Thumb Code    32  tasks.o(i.vTaskPlaceOnEventList)
    vTaskPlaceOnEventListRestricted          0x00003acd   Thumb Code    68  tasks.o(i.vTaskPlaceOnEventListRestricted)
    vTaskPriorityDisinheritAfterTimeout      0x00003b15   Thumb Code   136  tasks.o(i.vTaskPriorityDisinheritAfterTimeout)
    vTaskStartScheduler                      0x00003ba5   Thumb Code   102  tasks.o(i.vTaskStartScheduler)
    vTaskSuspendAll                          0x00003c1d   Thumb Code    10  tasks.o(i.vTaskSuspendAll)
    vTaskSwitchContext                       0x00003c2d   Thumb Code   120  tasks.o(i.vTaskSwitchContext)
    xPortStartScheduler                      0x00003cb1   Thumb Code    40  port.o(i.xPortStartScheduler)
    xPortSysTickHandler                      0x00003ce1   Thumb Code    32  port.o(i.xPortSysTickHandler)
    xQueueCreateCountingSemaphore            0x00003d05   Thumb Code    32  queue.o(i.xQueueCreateCountingSemaphore)
    xQueueCreateMutex                        0x00003d25   Thumb Code    24  queue.o(i.xQueueCreateMutex)
    xQueueCreateMutexStatic                  0x00003d3d   Thumb Code    28  queue.o(i.xQueueCreateMutexStatic)
    xQueueGenericCreate                      0x00003d59   Thumb Code    78  queue.o(i.xQueueGenericCreate)
    xQueueGenericCreateStatic                0x00003da7   Thumb Code    62  queue.o(i.xQueueGenericCreateStatic)
    xQueueGenericReset                       0x00003de5   Thumb Code   142  queue.o(i.xQueueGenericReset)
    xQueueGenericSend                        0x00003e73   Thumb Code   284  queue.o(i.xQueueGenericSend)
    xQueueGenericSendFromISR                 0x00003f8f   Thumb Code   154  queue.o(i.xQueueGenericSendFromISR)
    xQueueGiveFromISR                        0x00004029   Thumb Code   126  queue.o(i.xQueueGiveFromISR)
    xQueueReceive                            0x000040a7   Thumb Code   264  queue.o(i.xQueueReceive)
    xQueueReceiveFromISR                     0x000041af   Thumb Code   132  queue.o(i.xQueueReceiveFromISR)
    xQueueSemaphoreTake                      0x00004233   Thumb Code   318  queue.o(i.xQueueSemaphoreTake)
    xTaskCheckForTimeOut                     0x00004371   Thumb Code    96  tasks.o(i.xTaskCheckForTimeOut)
    xTaskCreate                              0x000043d5   Thumb Code    96  tasks.o(i.xTaskCreate)
    xTaskCreateStatic                        0x00004435   Thumb Code    70  tasks.o(i.xTaskCreateStatic)
    xTaskGetSchedulerState                   0x0000447d   Thumb Code    26  tasks.o(i.xTaskGetSchedulerState)
    xTaskGetTickCount                        0x0000449d   Thumb Code     6  tasks.o(i.xTaskGetTickCount)
    xTaskIncrementTick                       0x000044a9   Thumb Code   266  tasks.o(i.xTaskIncrementTick)
    xTaskPriorityDisinherit                  0x000045bd   Thumb Code   122  tasks.o(i.xTaskPriorityDisinherit)
    xTaskPriorityInherit                     0x00004641   Thumb Code   142  tasks.o(i.xTaskPriorityInherit)
    xTaskRemoveFromEventList                 0x000046d9   Thumb Code   190  tasks.o(i.xTaskRemoveFromEventList)
    xTaskResumeAll                           0x000047a5   Thumb Code   248  tasks.o(i.xTaskResumeAll)
    xTimerCreateTimerTask                    0x000048a9   Thumb Code    80  timers.o(i.xTimerCreateTimerTask)
    _get_lc_ctype                            0x00004909   Thumb Code    44  lc_ctype_c.o(locale$$code)
    _get_lc_numeric                          0x00004935   Thumb Code    44  lc_numeric_c.o(locale$$code)
    _printf_fp_dec                           0x00004961   Thumb Code    16  printf1.o(x$fpl$printf1)
    __I$use$fp                               0x00004970   Number         0  usenofp.o(x$fpl$usenofp)
    Region$$Table$$Base                      0x00004a48   Number         0  anon$$obj.o(Region$$Table)
    Region$$Table$$Limit                     0x00004a68   Number         0  anon$$obj.o(Region$$Table)
    __ctype                                  0x00004a75   Data           0  lc_ctype_c.o(locale$$data)
    SHT$$INIT_ARRAY$$Base                    0x00004b94   Number         0  main.o(.init_array)
    SHT$$INIT_ARRAY$$Limit                   0x00004b98   Number         0  init_aeabi.o(.init_array)
    startFlag                                0x20000000   Data           1  main.o(.data)
    connectedToManager                       0x20000001   Data           1  main.o(.data)
    length                                   0x20000002   Data           1  main.o(.data)
    responseLength                           0x20000004   Data           4  main.o(.data)
    responseLengthCopy                       0x20000008   Data           4  main.o(.data)
    bluetoothData                            0x2000000c   Data           4  main.o(.data)
    gsmData                                  0x20000010   Data           4  main.o(.data)
    dma_in_use                               0x20000014   Data           4  main.o(.data)
    bluetoothInUse                           0x20000018   Data           4  main.o(.data)
    gsm_in_use                               0x2000001c   Data           4  main.o(.data)
    dataRecieved                             0x20000020   Data           4  main.o(.data)
    gsmDataRecieved                          0x20000024   Data           4  main.o(.data)
    getNetworkInfo                           0x20000028   Data           4  main.o(.data)
    getNetworkConfig                         0x2000002c   Data           4  main.o(.data)
    moteConfigWasGotFromID                   0x20000030   Data           4  main.o(.data)
    api_usart                                0x20000034   Data           8  main.o(.data)
    bluetooth                                0x2000003c   Data           8  main.o(.data)
    gsm_usart                                0x20000044   Data           8  main.o(.data)
    SystemCoreClock                          0x2000044c   Data           4  system_saml21g18b.o(.data)
    pxCurrentTCB                             0x20000474   Data           4  tasks.o(.data)
    uxTopUsedPriority                        0x200004a4   Data           4  tasks.o(.data)
    txbuffer                                 0x200004c8   Data         130  main.o(.bss)
    smartmeshData                            0x2000054a   Data         130  main.o(.bss)
    responseGsmBuffer                        0x200005cc   Data         200  main.o(.bss)
    txGsmBuffer                              0x20000694   Data         200  main.o(.bss)
    api                                      0x2000075c   Data         140  main.o(.bss)
    __libspace_start                         0x20005600   Data          96  libspace.o(.bss)
    __temporary_stack_top$libspace           0x20005660   Data           0  libspace.o(.bss)



==============================================================================

Memory Map of the image

  Image Entry point : 0x000000b1

  Load Region LR_IROM1 (Base: 0x00000000, Size: 0x00005060, Max: 0x00040000, ABSOLUTE, COMPRESSED[0x00004dbc])

    Execution Region ER_IROM1 (Exec base: 0x00000000, Load base: 0x00000000, Size: 0x00004b98, Max: 0x00040000, ABSOLUTE)

    Exec Addr    Load Addr    Size         Type   Attr      Idx    E Section Name        Object

    0x00000000   0x00000000   0x000000b0   Data   RO         2269    RESET               startup_saml21g18b.o
    0x000000b0   0x000000b0   0x00000008   Code   RO         3632  * !!!main             c_p.l(__main.o)
    0x000000b8   0x000000b8   0x0000003c   Code   RO         3958    !!!scatter          c_p.l(__scatter.o)
    0x000000f4   0x000000f4   0x0000001c   Code   RO         3960    !!handler_zi        c_p.l(__scatter_zi.o)
    0x00000110   0x00000110   0x00000002   Code   RO         3733    .ARM.Collect$$_printf_percent$$00000000  c_p.l(_printf_percent.o)
    0x00000112   0x00000112   0x0000000a   Code   RO         3722    .ARM.Collect$$_printf_percent$$00000001  c_p.l(_printf_n.o)
    0x0000011c   0x0000011c   0x0000000a   Code   RO         3724    .ARM.Collect$$_printf_percent$$00000002  c_p.l(_printf_p.o)
    0x00000126   0x00000126   0x0000000a   Code   RO         3729    .ARM.Collect$$_printf_percent$$00000003  c_p.l(_printf_f.o)
    0x00000130   0x00000130   0x0000000a   Code   RO         3730    .ARM.Collect$$_printf_percent$$00000004  c_p.l(_printf_e.o)
    0x0000013a   0x0000013a   0x0000000a   Code   RO         3731    .ARM.Collect$$_printf_percent$$00000005  c_p.l(_printf_g.o)
    0x00000144   0x00000144   0x0000000a   Code   RO         3732    .ARM.Collect$$_printf_percent$$00000006  c_p.l(_printf_a.o)
    0x0000014e   0x0000014e   0x0000000a   Code   RO         3737    .ARM.Collect$$_printf_percent$$00000007  c_p.l(_printf_ll.o)
    0x00000158   0x00000158   0x0000000a   Code   RO         3726    .ARM.Collect$$_printf_percent$$00000008  c_p.l(_printf_i.o)
    0x00000162   0x00000162   0x0000000a   Code   RO         3727    .ARM.Collect$$_printf_percent$$00000009  c_p.l(_printf_d.o)
    0x0000016c   0x0000016c   0x0000000a   Code   RO         3728    .ARM.Collect$$_printf_percent$$0000000A  c_p.l(_printf_u.o)
    0x00000176   0x00000176   0x0000000a   Code   RO         3725    .ARM.Collect$$_printf_percent$$0000000B  c_p.l(_printf_o.o)
    0x00000180   0x00000180   0x0000000a   Code   RO         3723    .ARM.Collect$$_printf_percent$$0000000C  c_p.l(_printf_x.o)
    0x0000018a   0x0000018a   0x0000000a   Code   RO         3734    .ARM.Collect$$_printf_percent$$0000000D  c_p.l(_printf_lli.o)
    0x00000194   0x00000194   0x0000000a   Code   RO         3735    .ARM.Collect$$_printf_percent$$0000000E  c_p.l(_printf_lld.o)
    0x0000019e   0x0000019e   0x0000000a   Code   RO         3736    .ARM.Collect$$_printf_percent$$0000000F  c_p.l(_printf_llu.o)
    0x000001a8   0x000001a8   0x0000000a   Code   RO         3741    .ARM.Collect$$_printf_percent$$00000010  c_p.l(_printf_llo.o)
    0x000001b2   0x000001b2   0x0000000a   Code   RO         3742    .ARM.Collect$$_printf_percent$$00000011  c_p.l(_printf_llx.o)
    0x000001bc   0x000001bc   0x0000000a   Code   RO         3738    .ARM.Collect$$_printf_percent$$00000012  c_p.l(_printf_l.o)
    0x000001c6   0x000001c6   0x0000000a   Code   RO         3720    .ARM.Collect$$_printf_percent$$00000013  c_p.l(_printf_c.o)
    0x000001d0   0x000001d0   0x0000000a   Code   RO         3721    .ARM.Collect$$_printf_percent$$00000014  c_p.l(_printf_s.o)
    0x000001da   0x000001da   0x0000000a   Code   RO         3739    .ARM.Collect$$_printf_percent$$00000015  c_p.l(_printf_lc.o)
    0x000001e4   0x000001e4   0x0000000a   Code   RO         3740    .ARM.Collect$$_printf_percent$$00000016  c_p.l(_printf_ls.o)
    0x000001ee   0x000001ee   0x00000004   Code   RO         3833    .ARM.Collect$$_printf_percent$$00000017  c_p.l(_printf_percent_end.o)
    0x000001f2   0x000001f2   0x00000002   Code   RO         3874    .ARM.Collect$$libinit$$00000000  c_p.l(libinit.o)
    0x000001f4   0x000001f4   0x00000000   Code   RO         3753    .ARM.Collect$$libinit$$00000002  c_p.l(libinit2.o)
    0x000001f4   0x000001f4   0x00000000   Code   RO         3755    .ARM.Collect$$libinit$$00000004  c_p.l(libinit2.o)
    0x000001f4   0x000001f4   0x00000000   Code   RO         3758    .ARM.Collect$$libinit$$0000000A  c_p.l(libinit2.o)
    0x000001f4   0x000001f4   0x00000000   Code   RO         3760    .ARM.Collect$$libinit$$0000000C  c_p.l(libinit2.o)
    0x000001f4   0x000001f4   0x00000000   Code   RO         3762    .ARM.Collect$$libinit$$0000000E  c_p.l(libinit2.o)
    0x000001f4   0x000001f4   0x00000006   Code   RO         3763    .ARM.Collect$$libinit$$0000000F  c_p.l(libinit2.o)
    0x000001fa   0x000001fa   0x00000000   Code   RO         3765    .ARM.Collect$$libinit$$00000011  c_p.l(libinit2.o)
    0x000001fa   0x000001fa   0x0000000c   Code   RO         3766    .ARM.Collect$$libinit$$00000012  c_p.l(libinit2.o)
    0x00000206   0x00000206   0x00000000   Code   RO         3767    .ARM.Collect$$libinit$$00000013  c_p.l(libinit2.o)
    0x00000206   0x00000206   0x00000000   Code   RO         3769    .ARM.Collect$$libinit$$00000015  c_p.l(libinit2.o)
    0x00000206   0x00000206   0x0000000a   Code   RO         3770    .ARM.Collect$$libinit$$00000016  c_p.l(libinit2.o)
    0x00000210   0x00000210   0x00000000   Code   RO         3771    .ARM.Collect$$libinit$$00000017  c_p.l(libinit2.o)
    0x00000210   0x00000210   0x00000000   Code   RO         3773    .ARM.Collect$$libinit$$00000019  c_p.l(libinit2.o)
    0x00000210   0x00000210   0x00000000   Code   RO         3775    .ARM.Collect$$libinit$$0000001B  c_p.l(libinit2.o)
    0x00000210   0x00000210   0x00000000   Code   RO         3777    .ARM.Collect$$libinit$$0000001D  c_p.l(libinit2.o)
    0x00000210   0x00000210   0x00000000   Code   RO         3779    .ARM.Collect$$libinit$$0000001F  c_p.l(libinit2.o)
    0x00000210   0x00000210   0x00000000   Code   RO         3781    .ARM.Collect$$libinit$$00000021  c_p.l(libinit2.o)
    0x00000210   0x00000210   0x00000000   Code   RO         3783    .ARM.Collect$$libinit$$00000023  c_p.l(libinit2.o)
    0x00000210   0x00000210   0x00000000   Code   RO         3785    .ARM.Collect$$libinit$$00000025  c_p.l(libinit2.o)
    0x00000210   0x00000210   0x00000000   Code   RO         3789    .ARM.Collect$$libinit$$0000002C  c_p.l(libinit2.o)
    0x00000210   0x00000210   0x00000000   Code   RO         3791    .ARM.Collect$$libinit$$0000002E  c_p.l(libinit2.o)
    0x00000210   0x00000210   0x00000000   Code   RO         3793    .ARM.Collect$$libinit$$00000030  c_p.l(libinit2.o)
    0x00000210   0x00000210   0x00000004   Code   RO         3794    .ARM.Collect$$libinit$$00000031  c_p.l(libinit2.o)
    0x00000214   0x00000214   0x00000000   Code   RO         3795    .ARM.Collect$$libinit$$00000032  c_p.l(libinit2.o)
    0x00000214   0x00000214   0x00000002   Code   RO         3796    .ARM.Collect$$libinit$$00000033  c_p.l(libinit2.o)
    0x00000216   0x00000216   0x00000002   Code   RO         3921    .ARM.Collect$$libshutdown$$00000000  c_p.l(libshutdown.o)
    0x00000218   0x00000218   0x00000000   Code   RO         3937    .ARM.Collect$$libshutdown$$00000002  c_p.l(libshutdown2.o)
    0x00000218   0x00000218   0x00000000   Code   RO         3939    .ARM.Collect$$libshutdown$$00000004  c_p.l(libshutdown2.o)
    0x00000218   0x00000218   0x00000000   Code   RO         3941    .ARM.Collect$$libshutdown$$00000006  c_p.l(libshutdown2.o)
    0x00000218   0x00000218   0x00000000   Code   RO         3944    .ARM.Collect$$libshutdown$$00000009  c_p.l(libshutdown2.o)
    0x00000218   0x00000218   0x00000000   Code   RO         3947    .ARM.Collect$$libshutdown$$0000000C  c_p.l(libshutdown2.o)
    0x00000218   0x00000218   0x00000000   Code   RO         3949    .ARM.Collect$$libshutdown$$0000000E  c_p.l(libshutdown2.o)
    0x00000218   0x00000218   0x00000000   Code   RO         3952    .ARM.Collect$$libshutdown$$00000011  c_p.l(libshutdown2.o)
    0x00000218   0x00000218   0x00000002   Code   RO         3953    .ARM.Collect$$libshutdown$$00000012  c_p.l(libshutdown2.o)
    0x0000021a   0x0000021a   0x00000000   Code   RO         3640    .ARM.Collect$$rtentry$$00000000  c_p.l(__rtentry.o)
    0x0000021a   0x0000021a   0x00000000   Code   RO         3803    .ARM.Collect$$rtentry$$00000002  c_p.l(__rtentry2.o)
    0x0000021a   0x0000021a   0x00000006   Code   RO         3815    .ARM.Collect$$rtentry$$00000004  c_p.l(__rtentry4.o)
    0x00000220   0x00000220   0x00000008   Code   RO         3804    .ARM.Collect$$rtentry$$00000008  c_p.l(__rtentry2.o)
    0x00000228   0x00000228   0x00000004   Code   RO         3806    .ARM.Collect$$rtentry$$0000000A  c_p.l(__rtentry2.o)
    0x0000022c   0x0000022c   0x00000000   Code   RO         3808    .ARM.Collect$$rtentry$$0000000C  c_p.l(__rtentry2.o)
    0x0000022c   0x0000022c   0x00000008   Code   RO         3809    .ARM.Collect$$rtentry$$0000000D  c_p.l(__rtentry2.o)
    0x00000234   0x00000234   0x00000002   Code   RO         3883    .ARM.Collect$$rtexit$$00000000  c_p.l(rtexit.o)
    0x00000236   0x00000236   0x00000000   Code   RO         3903    .ARM.Collect$$rtexit$$00000002  c_p.l(rtexit2.o)
    0x00000236   0x00000236   0x00000004   Code   RO         3904    .ARM.Collect$$rtexit$$00000003  c_p.l(rtexit2.o)
    0x0000023a   0x0000023a   0x00000006   Code   RO         3905    .ARM.Collect$$rtexit$$00000004  c_p.l(rtexit2.o)
    0x00000240   0x00000240   0x00000078   Code   RO         2567    .emb_text           port.o
    0x000002b8   0x000002b8   0x00000038   Code   RO         3616    .emb_text           c_p.l(rt_memcpy.o)
    0x000002f0   0x000002f0   0x00000038   Code   RO         2270    .text               startup_saml21g18b.o
    0x00000328   0x00000328   0x00000010   Code   RO         3600    .text               c_p.l(rt_ctype_table.o)
    0x00000338   0x00000338   0x00000024   Code   RO         3602    .text               c_p.l(c89vsprintf.o)
    0x0000035c   0x0000035c   0x00000040   Code   RO         3604    .text               c_p.l(__0sscanf.o)
    0x0000039c   0x0000039c   0x0000014a   Code   RO         3606    .text               c_p.l(_scanf_int.o)
    0x000004e6   0x000004e6   0x000000e8   Code   RO         3608    .text               c_p.l(_scanf_str.o)
    0x000005ce   0x000005ce   0x00000028   Code   RO         3610    .text               c_p.l(strstr.o)
    0x000005f6   0x000005f6   0x00000002   PAD
    0x000005f8   0x000005f8   0x00000044   Code   RO         3612    .text               c_p.l(strlen.o)
    0x0000063c   0x0000063c   0x00000082   Code   RO         3617    .text               c_p.l(rt_memcpy.o)
    0x000006be   0x000006be   0x00000012   Code   RO         3622    .text               c_p.l(aeabi_memset.o)
    0x000006d0   0x000006d0   0x00000040   Code   RO         3624    .text               c_p.l(rt_memclr.o)
    0x00000710   0x00000710   0x0000015a   Code   RO         3626    .text               c_p.l(aeabi_sdiv.o)
    0x0000086a   0x0000086a   0x00000006   Code   RO         3630    .text               c_p.l(heapauxi.o)
    0x00000870   0x00000870   0x00000024   Code   RO         3637    .text               c_p.l(init_aeabi.o)
    0x00000894   0x00000894   0x0000000a   Code   RO         3650    .text               c_p.l(rt_locale_twolibspace.o)
    0x0000089e   0x0000089e   0x0000004e   Code   RO         3654    .text               c_p.l(_printf_pad.o)
    0x000008ec   0x000008ec   0x00000024   Code   RO         3656    .text               c_p.l(_printf_truncate.o)
    0x00000910   0x00000910   0x00000052   Code   RO         3658    .text               c_p.l(_printf_str.o)
    0x00000962   0x00000962   0x00000002   PAD
    0x00000964   0x00000964   0x0000006c   Code   RO         3660    .text               c_p.l(_printf_dec.o)
    0x000009d0   0x000009d0   0x00000026   Code   RO         3662    .text               c_p.l(_printf_charcount.o)
    0x000009f6   0x000009f6   0x00000002   PAD
    0x000009f8   0x000009f8   0x00000030   Code   RO         3664    .text               c_p.l(_printf_char_common.o)
    0x00000a28   0x00000a28   0x0000000a   Code   RO         3666    .text               c_p.l(_sputc.o)
    0x00000a32   0x00000a32   0x00000002   PAD
    0x00000a34   0x00000a34   0x000000bc   Code   RO         3668    .text               c_p.l(_printf_wctomb.o)
    0x00000af0   0x00000af0   0x00000070   Code   RO         3671    .text               c_p.l(_printf_longlong_dec.o)
    0x00000b60   0x00000b60   0x00000070   Code   RO         3677    .text               c_p.l(_printf_oct_int_ll.o)
    0x00000bd0   0x00000bd0   0x00000098   Code   RO         3697    .text               c_p.l(_printf_hex_int_ll_ptr.o)
    0x00000c68   0x00000c68   0x00000188   Code   RO         3717    .text               c_p.l(__printf_flags_ss_wp.o)
    0x00000df0   0x00000df0   0x0000001e   Code   RO         3743    .text               c_p.l(_chval.o)
    0x00000e0e   0x00000e0e   0x00000002   PAD
    0x00000e10   0x00000e10   0x00000030   Code   RO         3745    .text               c_p.l(scanf_char.o)
    0x00000e40   0x00000e40   0x00000044   Code   RO         3747    .text               c_p.l(_sgetc.o)
    0x00000e84   0x00000e84   0x00000008   Code   RO         3799    .text               c_p.l(libspace.o)
    0x00000e8c   0x00000e8c   0x0000007a   Code   RO         3819    .text               c_p.l(lludiv10.o)
    0x00000f06   0x00000f06   0x00000012   Code   RO         3821    .text               c_p.l(isspace.o)
    0x00000f18   0x00000f18   0x000000b0   Code   RO         3823    .text               c_p.l(_printf_intcommon.o)
    0x00000fc8   0x00000fc8   0x00000418   Code   RO         3825    .text               c_p.l(_printf_fp_dec.o)
    0x000013e0   0x000013e0   0x0000002e   Code   RO         3829    .text               c_p.l(_printf_char.o)
    0x0000140e   0x0000140e   0x0000002e   Code   RO         3831    .text               c_p.l(_printf_wchar.o)
    0x0000143c   0x0000143c   0x00000394   Code   RO         3834    .text               c_p.l(_scanf.o)
    0x000017d0   0x000017d0   0x00000040   Code   RO         3836    .text               c_p.l(_wcrtomb.o)
    0x00001810   0x00001810   0x00000088   Code   RO         3838    .text               c_p.l(strcmp.o)
    0x00001898   0x00001898   0x00000028   Code   RO         3840    .text               c_p.l(rtudiv10.o)
    0x000018c0   0x000018c0   0x0000003e   Code   RO         3846    .text               c_p.l(sys_stackheap_outer.o)
    0x000018fe   0x000018fe   0x00000002   PAD
    0x00001900   0x00001900   0x00000088   Code   RO         3849    .text               c_p.l(_printf_fp_infnan.o)
    0x00001988   0x00001988   0x000000d8   Code   RO         3851    .text               c_p.l(bigflt0.o)
    0x00001a60   0x00001a60   0x00000580   Code   RO         3854    .text               c_p.l(btod.o)
    0x00001fe0   0x00001fe0   0x00000010   Code   RO         3861    .text               c_p.l(exit.o)
    0x00001ff0   0x00001ff0   0x0000000c   Code   RO         3897    .text               c_p.l(sys_exit.o)
    0x00001ffc   0x00001ffc   0x00000002   Code   RO         3899    .text               c_p.l(use_no_semi.o)
    0x00001ffe   0x00001ffe   0x00000000   Code   RO         3901    .text               c_p.l(indicate_semi.o)
    0x00001ffe   0x00001ffe   0x00000060   Code   RO         3956    .text               c_p.l(__dclz77c.o)
    0x0000205e   0x0000205e   0x00000002   PAD
    0x00002060   0x00002060   0x000000fc   Code   RO            3    i.SERCOM0_Handler   main.o
    0x0000215c   0x0000215c   0x00000030   Code   RO            4    i.SERCOM1_Handler   main.o
    0x0000218c   0x0000218c   0x000000ac   Code   RO            5    i.SERCOM2_Handler   main.o
    0x00002238   0x00002238   0x00000002   Code   RO         2568    i.SVC_Handler       port.o
    0x0000223a   0x0000223a   0x00000002   PAD
    0x0000223c   0x0000223c   0x00000018   Code   RO         1664    i.SysTick_Handler   cmsis_os2.o
    0x00002254   0x00002254   0x00000010   Code   RO         2277    i.SystemInit        system_saml21g18b.o
    0x00002264   0x00002264   0x000000ac   Code   RO            6    i._Z10setupParsePv  main.o
    0x00002310   0x00002310   0x00000100   Code   RO         1016    i._Z12parseGSMDataPv  gsm_usart.o
    0x00002410   0x00002410   0x000001c4   Code   RO          556    i._Z12setup_systemv  system_setup.o
    0x000025d4   0x000025d4   0x00000030   Code   RO            7    i._Z12verifyPackettPht  main.o
    0x00002604   0x00002604   0x0000002c   Code   RO          671    i._Z14bluetoothParsePv  bluetooth.o
    0x00002630   0x00002630   0x00000098   Code   RO         1017    i._Z16isValidIPAddressPKc  gsm_usart.o
    0x000026c8   0x000026c8   0x0000015c   Code   RO            8    i._Z18parseSmartmeshDataPv  main.o
    0x00002824   0x00002824   0x00000040   Code   RO         1020    i._Z8gsmParsePv     gsm_usart.o
    0x00002864   0x00002864   0x00000002   Code   RO         1104    i._Z9setup_rtcv     rtc.o
    0x00002866   0x00002866   0x00000022   Code   RO         1186    i._ZN13Smartmesh_API11init_packetEhh  api.o
    0x00002888   0x00002888   0x00000030   Code   RO         1187    i._ZN13Smartmesh_API12checksumDataEtPht  api.o
    0x000028b8   0x000028b8   0x00000034   Code   RO         1188    i._ZN13Smartmesh_API12resetManagerEv  api.o
    0x000028ec   0x000028ec   0x00000034   Code   RO         1189    i._ZN13Smartmesh_API12verifyPacketEtPht  api.o
    0x00002920   0x00002920   0x000000b8   Code   RO         1195    i._ZN13Smartmesh_API16parseNetworkInfoEP12network_infoPh  api.o
    0x000029d8   0x000029d8   0x0000003c   Code   RO         1200    i._ZN13Smartmesh_API8mgr_initEv  api.o
    0x00002a14   0x00002a14   0x00000044   Code   RO         1202    i._ZN13Smartmesh_API9subscribeEjj  api.o
    0x00002a58   0x00002a58   0x0000000c   Code   RO         1203    i._ZN13Smartmesh_APIC1EP4UART  api.o
    0x00002a64   0x00002a64   0x00000058   Code   RO         1140    i._ZN4UART10send_arrayEPhh  sercom.o
    0x00002abc   0x00002abc   0x00000080   Code   RO         1141    i._ZN4UART7_printfEPKcz  sercom.o
    0x00002b3c   0x00002b3c   0x000000fc   Code   RO         1142    i._ZN4UARTC1EP18sercom_registers_ti  sercom.o
    0x00002c38   0x00002c38   0x00000030   Code   RO         3856    i.__ARM_common_ll_muluu  c_p.l(btod.o)
    0x00002c68   0x00002c68   0x0000001a   Code   RO         2147    i.__ARM_common_switch8  cmsis_os2.o
    0x00002c82   0x00002c82   0x00000002   PAD
    0x00002c84   0x00002c84   0x0000002c   Code   RO         3878    i.__ARM_fpclassify  m_ps.l(fpclassify.o)
    0x00002cb0   0x00002cb0   0x000000c0   Code   RO            9    i.__sti___8_main_cpp_982d444f  main.o
    0x00002d70   0x00002d70   0x0000000e   Code   RO         3710    i._is_digit         c_p.l(__printf_wp.o)
    0x00002d7e   0x00002d7e   0x00000018   Code   RO         1326    i._mutex_acquire    clib_arm.o
    0x00002d96   0x00002d96   0x00000002   PAD
    0x00002d98   0x00002d98   0x0000002c   Code   RO         1327    i._mutex_free       clib_arm.o
    0x00002dc4   0x00002dc4   0x00000058   Code   RO         1328    i._mutex_initialize  clib_arm.o
    0x00002e1c   0x00002e1c   0x0000001a   Code   RO         1329    i._mutex_release    clib_arm.o
    0x00002e36   0x00002e36   0x00000002   Code   RO         1330    i._platform_post_stackheap_init  clib_arm.o
    0x00002e38   0x00002e38   0x00000104   Code   RO           10    i.main              main.o
    0x00002f3c   0x00002f3c   0x00000012   Code   RO         1331    i.os_kernel_is_active  clib_arm.o
    0x00002f4e   0x00002f4e   0x00000002   PAD
    0x00002f50   0x00002f50   0x00000074   Code   RO         3040    i.prvAddCurrentTaskToDelayedList  tasks.o
    0x00002fc4   0x00002fc4   0x00000094   Code   RO         3041    i.prvAddNewTaskToReadyList  tasks.o
    0x00003058   0x00003058   0x00000048   Code   RO         3424    i.prvCheckForValidListAndQueue  timers.o
    0x000030a0   0x000030a0   0x0000003c   Code   RO         3042    i.prvCheckTasksWaitingTermination  tasks.o
    0x000030dc   0x000030dc   0x00000024   Code   RO         2646    i.prvCopyDataFromQueue  queue.o
    0x00003100   0x00003100   0x00000070   Code   RO         2647    i.prvCopyDataToQueue  queue.o
    0x00003170   0x00003170   0x0000002e   Code   RO         3043    i.prvDeleteTCB      tasks.o
    0x0000319e   0x0000319e   0x00000014   Code   RO         2648    i.prvGetDisinheritPriorityAfterTimeout  queue.o
    0x000031b2   0x000031b2   0x00000002   PAD
    0x000031b4   0x000031b4   0x00000024   Code   RO         3425    i.prvGetNextExpireTime  timers.o
    0x000031d8   0x000031d8   0x0000004c   Code   RO         2504    i.prvHeapInit       heap_4.o
    0x00003224   0x00003224   0x00000018   Code   RO         3044    i.prvIdleTask       tasks.o
    0x0000323c   0x0000323c   0x0000001a   Code   RO         2649    i.prvInitialiseMutex  queue.o
    0x00003256   0x00003256   0x00000022   Code   RO         2650    i.prvInitialiseNewQueue  queue.o
    0x00003278   0x00003278   0x0000009c   Code   RO         3045    i.prvInitialiseNewTask  tasks.o
    0x00003314   0x00003314   0x00000054   Code   RO         3046    i.prvInitialiseTaskLists  tasks.o
    0x00003368   0x00003368   0x00000054   Code   RO         2505    i.prvInsertBlockIntoFreeList  heap_4.o
    0x000033bc   0x000033bc   0x00000040   Code   RO         3427    i.prvInsertTimerInActiveList  timers.o
    0x000033fc   0x000033fc   0x0000001c   Code   RO         2651    i.prvIsQueueEmpty   queue.o
    0x00003418   0x00003418   0x0000001e   Code   RO         2652    i.prvIsQueueFull    queue.o
    0x00003436   0x00003436   0x00000002   PAD
    0x00003438   0x00003438   0x00000040   Code   RO         3428    i.prvProcessExpiredTimer  timers.o
    0x00003478   0x00003478   0x000000ec   Code   RO         3429    i.prvProcessReceivedCommands  timers.o
    0x00003564   0x00003564   0x00000064   Code   RO         3430    i.prvProcessTimerOrBlockTask  timers.o
    0x000035c8   0x000035c8   0x00000028   Code   RO         3431    i.prvReloadTimer    timers.o
    0x000035f0   0x000035f0   0x00000020   Code   RO         3048    i.prvResetNextTaskUnblockTime  tasks.o
    0x00003610   0x00003610   0x0000002c   Code   RO         3432    i.prvSampleTimeNow  timers.o
    0x0000363c   0x0000363c   0x0000002c   Code   RO         3433    i.prvSwitchTimerLists  timers.o
    0x00003668   0x00003668   0x00000014   Code   RO         2569    i.prvTaskExitError  port.o
    0x0000367c   0x0000367c   0x00000014   Code   RO         3434    i.prvTimerTask      timers.o
    0x00003690   0x00003690   0x00000070   Code   RO         2653    i.prvUnlockQueue    queue.o
    0x00003700   0x00003700   0x000000cc   Code   RO         2506    i.pvPortMalloc      heap_4.o
    0x000037cc   0x000037cc   0x00000018   Code   RO         3051    i.pvTaskIncrementMutexHeldCount  tasks.o
    0x000037e4   0x000037e4   0x00000020   Code   RO         2570    i.pxPortInitialiseStack  port.o
    0x00003804   0x00003804   0x00000026   Code   RO         2460    i.uxListRemove      list.o
    0x0000382a   0x0000382a   0x00000002   PAD
    0x0000382c   0x0000382c   0x00000014   Code   RO         1737    i.vApplicationGetIdleTaskMemory  cmsis_os2.o
    0x00003840   0x00003840   0x00000014   Code   RO         1738    i.vApplicationGetTimerTaskMemory  cmsis_os2.o
    0x00003854   0x00003854   0x00000004   Code   RO         1739    i.vApplicationStackOverflowHook  cmsis_os2.o
    0x00003858   0x00003858   0x00000016   Code   RO         2461    i.vListInitialise   list.o
    0x0000386e   0x0000386e   0x00000006   Code   RO         2462    i.vListInitialiseItem  list.o
    0x00003874   0x00003874   0x00000030   Code   RO         2463    i.vListInsert       list.o
    0x000038a4   0x000038a4   0x00000018   Code   RO         2464    i.vListInsertEnd    list.o
    0x000038bc   0x000038bc   0x00000018   Code   RO         2572    i.vPortEnterCritical  port.o
    0x000038d4   0x000038d4   0x0000001c   Code   RO         2573    i.vPortExitCritical  port.o
    0x000038f0   0x000038f0   0x00000048   Code   RO         2507    i.vPortFree         heap_4.o
    0x00003938   0x00003938   0x00000028   Code   RO         2574    i.vPortSetupTimerInterrupt  port.o
    0x00003960   0x00003960   0x00000018   Code   RO         2575    i.vPortYield        port.o
    0x00003978   0x00003978   0x00000018   Code   RO         2659    i.vQueueDelete      queue.o
    0x00003990   0x00003990   0x00000046   Code   RO         2661    i.vQueueWaitForMessageRestricted  queue.o
    0x000039d6   0x000039d6   0x00000002   PAD
    0x000039d8   0x000039d8   0x00000034   Code   RO         3061    i.vTaskDelay        tasks.o
    0x00003a0c   0x00003a0c   0x00000080   Code   RO         3062    i.vTaskDelete       tasks.o
    0x00003a8c   0x00003a8c   0x00000010   Code   RO         3066    i.vTaskInternalSetTimeOutState  tasks.o
    0x00003a9c   0x00003a9c   0x0000000c   Code   RO         3067    i.vTaskMissedYield  tasks.o
    0x00003aa8   0x00003aa8   0x00000024   Code   RO         3068    i.vTaskPlaceOnEventList  tasks.o
    0x00003acc   0x00003acc   0x00000048   Code   RO         3069    i.vTaskPlaceOnEventListRestricted  tasks.o
    0x00003b14   0x00003b14   0x00000090   Code   RO         3071    i.vTaskPriorityDisinheritAfterTimeout  tasks.o
    0x00003ba4   0x00003ba4   0x00000078   Code   RO         3077    i.vTaskStartScheduler  tasks.o
    0x00003c1c   0x00003c1c   0x00000010   Code   RO         3079    i.vTaskSuspendAll   tasks.o
    0x00003c2c   0x00003c2c   0x00000084   Code   RO         3080    i.vTaskSwitchContext  tasks.o
    0x00003cb0   0x00003cb0   0x00000030   Code   RO         2576    i.xPortStartScheduler  port.o
    0x00003ce0   0x00003ce0   0x00000024   Code   RO         2577    i.xPortSysTickHandler  port.o
    0x00003d04   0x00003d04   0x00000020   Code   RO         2662    i.xQueueCreateCountingSemaphore  queue.o
    0x00003d24   0x00003d24   0x00000018   Code   RO         2664    i.xQueueCreateMutex  queue.o
    0x00003d3c   0x00003d3c   0x0000001c   Code   RO         2665    i.xQueueCreateMutexStatic  queue.o
    0x00003d58   0x00003d58   0x0000004e   Code   RO         2666    i.xQueueGenericCreate  queue.o
    0x00003da6   0x00003da6   0x0000003e   Code   RO         2667    i.xQueueGenericCreateStatic  queue.o
    0x00003de4   0x00003de4   0x0000008e   Code   RO         2668    i.xQueueGenericReset  queue.o
    0x00003e72   0x00003e72   0x0000011c   Code   RO         2669    i.xQueueGenericSend  queue.o
    0x00003f8e   0x00003f8e   0x0000009a   Code   RO         2670    i.xQueueGenericSendFromISR  queue.o
    0x00004028   0x00004028   0x0000007e   Code   RO         2673    i.xQueueGiveFromISR  queue.o
    0x000040a6   0x000040a6   0x00000108   Code   RO         2679    i.xQueueReceive     queue.o
    0x000041ae   0x000041ae   0x00000084   Code   RO         2680    i.xQueueReceiveFromISR  queue.o
    0x00004232   0x00004232   0x0000013e   Code   RO         2681    i.xQueueSemaphoreTake  queue.o
    0x00004370   0x00004370   0x00000064   Code   RO         3082    i.xTaskCheckForTimeOut  tasks.o
    0x000043d4   0x000043d4   0x00000060   Code   RO         3083    i.xTaskCreate       tasks.o
    0x00004434   0x00004434   0x00000046   Code   RO         3084    i.xTaskCreateStatic  tasks.o
    0x0000447a   0x0000447a   0x00000002   PAD
    0x0000447c   0x0000447c   0x00000020   Code   RO         3091    i.xTaskGetSchedulerState  tasks.o
    0x0000449c   0x0000449c   0x0000000c   Code   RO         3092    i.xTaskGetTickCount  tasks.o
    0x000044a8   0x000044a8   0x00000114   Code   RO         3094    i.xTaskIncrementTick  tasks.o
    0x000045bc   0x000045bc   0x00000084   Code   RO         3095    i.xTaskPriorityDisinherit  tasks.o
    0x00004640   0x00004640   0x00000098   Code   RO         3096    i.xTaskPriorityInherit  tasks.o
    0x000046d8   0x000046d8   0x000000cc   Code   RO         3097    i.xTaskRemoveFromEventList  tasks.o
    0x000047a4   0x000047a4   0x00000104   Code   RO         3098    i.xTaskResumeAll    tasks.o
    0x000048a8   0x000048a8   0x00000060   Code   RO         3443    i.xTimerCreateTimerTask  timers.o
    0x00004908   0x00004908   0x0000002c   Code   RO         3750    locale$$code        c_p.l(lc_ctype_c.o)
    0x00004934   0x00004934   0x0000002c   Code   RO         3859    locale$$code        c_p.l(lc_numeric_c.o)
    0x00004960   0x00004960   0x00000010   Code   RO         3797    x$fpl$printf1       fz_ps.l(printf1.o)
    0x00004970   0x00004970   0x00000000   Code   RO         3877    x$fpl$usenofp       fz_ps.l(usenofp.o)
    0x00004970   0x00004970   0x00000008   Data   RO         3669    .constdata          c_p.l(_printf_wctomb.o)
    0x00004978   0x00004978   0x00000028   Data   RO         3698    .constdata          c_p.l(_printf_hex_int_ll_ptr.o)
    0x000049a0   0x000049a0   0x00000011   Data   RO         3718    .constdata          c_p.l(__printf_flags_ss_wp.o)
    0x000049b1   0x000049b1   0x00000003   PAD
    0x000049b4   0x000049b4   0x00000094   Data   RO         3852    .constdata          c_p.l(bigflt0.o)
    0x00004a48   0x00004a48   0x00000020   Data   RO         3954    Region$$Table       anon$$obj.o
    0x00004a68   0x00004a68   0x00000110   Data   RO         3749    locale$$data        c_p.l(lc_ctype_c.o)
    0x00004b78   0x00004b78   0x0000001c   Data   RO         3858    locale$$data        c_p.l(lc_numeric_c.o)
    0x00004b94   0x00004b94   0x00000004   Data   RO           23    .init_array         main.o
    0x00004b98   0x00004b94   0x00000000   Data   RO         3635    .init_array         c_p.l(init_aeabi.o)


    Execution Region RW_IRAM1 (Exec base: 0x20000000, Load base: 0x00004b98, Size: 0x00006060, Max: 0x00008000, ABSOLUTE, COMPRESSED[0x00000224])

    Exec Addr    Load Addr    Size         Type   Attr      Idx    E Section Name        Object

    0x20000000   COMPRESSED   0x0000024c   Data   RW           20    .data               main.o
    0x2000024c   COMPRESSED   0x00000200   Data   RW         1225    .data               api.o
    0x2000044c   COMPRESSED   0x00000004   Data   RW         2278    .data               system_saml21g18b.o
    0x20000450   COMPRESSED   0x00000020   Data   RW         2513    .data               heap_4.o
    0x20000470   COMPRESSED   0x00000004   Data   RW         2578    .data               port.o
    0x20000474   COMPRESSED   0x00000040   Data   RW         3101    .data               tasks.o
    0x200004b4   COMPRESSED   0x00000014   Data   RW         3452    .data               timers.o
    0x200004c8        -       0x00000320   Zero   RW           19    .bss                main.o
    0x200007e8        -       0x00000100   Zero   RW         1146    .bss                sercom.o
    0x200008e8        -       0x00000394   Zero   RW         1332    .bss                clib_arm.o
    0x20000c7c        -       0x000003f8   Zero   RW         1740    .bss                cmsis_os2.o
    0x20001074        -       0x00004000   Zero   RW         2512    .bss                heap_4.o
    0x20005074        -       0x000004c4   Zero   RW         3100    .bss                tasks.o
    0x20005538        -       0x000000c8   Zero   RW         3451    .bss                timers.o
    0x20005600        -       0x00000060   Zero   RW         3800    .bss                c_p.l(libspace.o)
    0x20005660        -       0x00000500   Zero   RW         2268    HEAP                startup_saml21g18b.o
    0x20005b60        -       0x00000500   Zero   RW         2267    STACK               startup_saml21g18b.o


==============================================================================

Image component sizes


      Code (inc. data)   RO Data    RW Data    ZI Data      Debug   Object Name

       510         34          0        512          0       5388   api.o
        44         12          0          0          0        501   bluetooth.o
       202         12          0          0        916      38188   clib_arm.o
        94         12          0          0       1016      19019   cmsis_os2.o
         0          0          0          0          0      11932   event_groups.o
       472        110          0          0          0       3783   gsm_usart.o
       436         26          0         32      16384       4371   heap_4.o
       138          0          0          0          0       3454   list.o
      1492        336          4        588        800     139158   main.o
       374         54          0          4          0       7399   port.o
      2136          0          0          0          0      23045   queue.o
         2          0          0          0          0        368   rtc.o
         0          0          0          0          0     117235   sendingdata.o
       468         66          0          0        256       3136   sercom.o
        56         26        176          0       2560        664   startup_saml21g18b.o
        16          8          0          4          0        715   system_saml21g18b.o
       452         84          0          0          0       7886   system_setup.o
      2752        196          0         64       1220      31975   tasks.o
       816         70          0         20        200      11780   timers.o

    ----------------------------------------------------------------------
     10478       1046        212       1224      23352     429997   Object Totals
         0          0         32          0          0          0   (incl. Generated)
        18          0          0          0          0          0   (incl. Padding)

    ----------------------------------------------------------------------

      Code (inc. data)   RO Data    RW Data    ZI Data      Debug   Library Member Name

        64         10          0          0          0         84   __0sscanf.o
        96          0          0          0          0          0   __dclz77c.o
         8          0          0          0          0         68   __main.o
       392          6         17          0          0         76   __printf_flags_ss_wp.o
        14          0          0          0          0         60   __printf_wp.o
         0          0          0          0          0          0   __rtentry.o
        20          0          0          0          0          0   __rtentry2.o
         6          0          0          0          0          0   __rtentry4.o
        60          8          0          0          0          0   __scatter.o
        28          0          0          0          0          0   __scatter_zi.o
        30          0          0          0          0         60   _chval.o
        10          0          0          0          0          0   _printf_a.o
        10          0          0          0          0          0   _printf_c.o
        46          0          0          0          0        100   _printf_char.o
        48          6          0          0          0         88   _printf_char_common.o
        38          0          0          0          0         60   _printf_charcount.o
        10          0          0          0          0          0   _printf_d.o
       108         18          0          0          0         76   _printf_dec.o
        10          0          0          0          0          0   _printf_e.o
        10          0          0          0          0          0   _printf_f.o
      1048         14          0          0          0        176   _printf_fp_dec.o
       136         16          0          0          0         76   _printf_fp_infnan.o
        10          0          0          0          0          0   _printf_g.o
       152          4         40          0          0        148   _printf_hex_int_ll_ptr.o
        10          0          0          0          0          0   _printf_i.o
       176          0          0          0          0         84   _printf_intcommon.o
        10          0          0          0          0          0   _printf_l.o
        10          0          0          0          0          0   _printf_lc.o
        10          0          0          0          0          0   _printf_ll.o
        10          0          0          0          0          0   _printf_lld.o
        10          0          0          0          0          0   _printf_lli.o
        10          0          0          0          0          0   _printf_llo.o
        10          0          0          0          0          0   _printf_llu.o
        10          0          0          0          0          0   _printf_llx.o
       112         18          0          0          0         76   _printf_longlong_dec.o
        10          0          0          0          0          0   _printf_ls.o
        10          0          0          0          0          0   _printf_n.o
        10          0          0          0          0          0   _printf_o.o
       112         10          0          0          0        112   _printf_oct_int_ll.o
        10          0          0          0          0          0   _printf_p.o
        78          0          0          0          0        100   _printf_pad.o
         2          0          0          0          0          0   _printf_percent.o
         4          0          0          0          0          0   _printf_percent_end.o
        10          0          0          0          0          0   _printf_s.o
        82          0          0          0          0         72   _printf_str.o
        36          0          0          0          0         76   _printf_truncate.o
        10          0          0          0          0          0   _printf_u.o
        46          0          0          0          0        100   _printf_wchar.o
       188          6          8          0          0         80   _printf_wctomb.o
        10          0          0          0          0          0   _printf_x.o
       916         16          0          0          0         84   _scanf.o
       330          0          0          0          0         84   _scanf_int.o
       232          0          0          0          0         84   _scanf_str.o
        68          0          0          0          0         76   _sgetc.o
        10          0          0          0          0         60   _sputc.o
        64          0          0          0          0         72   _wcrtomb.o
        18          0          0          0          0         68   aeabi_memset.o
       346          0          0          0          0         92   aeabi_sdiv.o
       216          6        148          0          0         80   bigflt0.o
      1456         30          0          0          0        336   btod.o
        36          4          0          0          0         68   c89vsprintf.o
        16          0          0          0          0         68   exit.o
         6          0          0          0          0        136   heapauxi.o
         0          0          0          0          0          0   indicate_semi.o
        36         10          0          0          0         72   init_aeabi.o
        18          0          0          0          0         68   isspace.o
        44         10        272          0          0         76   lc_ctype_c.o
        44         10         28          0          0         76   lc_numeric_c.o
         2          0          0          0          0          0   libinit.o
        34          0          0          0          0          0   libinit2.o
         2          0          0          0          0          0   libshutdown.o
         2          0          0          0          0          0   libshutdown2.o
         8          4          0          0         96         68   libspace.o
       122          0          0          0          0         72   lludiv10.o
        16          4          0          0          0         76   rt_ctype_table.o
        10          0          0          0          0         76   rt_locale_twolibspace.o
        64          0          0          0          0        108   rt_memclr.o
       186          0          0          0          0        144   rt_memcpy.o
         2          0          0          0          0          0   rtexit.o
        10          0          0          0          0          0   rtexit2.o
        40          0          0          0          0         60   rtudiv10.o
        48          8          0          0          0         84   scanf_char.o
       136          4          0          0          0         72   strcmp.o
        68          6          0          0          0         72   strlen.o
        40          0          0          0          0         72   strstr.o
        12          4          0          0          0         60   sys_exit.o
        62          0          0          0          0         80   sys_stackheap_outer.o
         2          0          0          0          0         68   use_no_semi.o
        16          4          0          0          0         76   printf1.o
         0          0          0          0          0          0   usenofp.o
        44          4          0          0          0         60   fpclassify.o

    ----------------------------------------------------------------------
      8146        240        516          0         96       4620   Library Totals
        14          0          3          0          0          0   (incl. Padding)

    ----------------------------------------------------------------------

      Code (inc. data)   RO Data    RW Data    ZI Data      Debug   Library Name

      8072        232        513          0         96       4484   c_p.l
        16          4          0          0          0         76   fz_ps.l
        44          4          0          0          0         60   m_ps.l

    ----------------------------------------------------------------------
      8146        240        516          0         96       4620   Library Totals

    ----------------------------------------------------------------------

==============================================================================


      Code (inc. data)   RO Data    RW Data    ZI Data      Debug   

     18624       1286        728       1224      23448     427293   Grand Totals
     18624       1286        728        548      23448     427293   ELF Image Totals (compressed)
     18624       1286        728        548          0          0   ROM Totals

==============================================================================

    Total RO  Size (Code + RO Data)                19352 (  18.90kB)
    Total RW  Size (RW Data + ZI Data)             24672 (  24.09kB)
    Total ROM Size (Code + RO Data + RW Data)      19900 (  19.43kB)

==============================================================================

